(dp0
I0
S'Avondale Barrel Aged Brett Saison'
p1
sI1
S'McFate Imperial Candy Bar Stout - Barrel Aged'
p2
sI2
S'Sockeye Double Dagger IIPA (Fresh Hop)'
p3
sI3
S'Good People El Gordo Imperial Stout'
p4
sI4
S'Straight To Ale Laika Russian Imperial Stout'
p5
sI5
S'Straight To Ale Laika Russian Imperial Stout - Bourbon Barrel Aged'
p6
sI6
S'Fairhope (Take The) Causeway IPA'
p7
sI7
S'Anchorage Anadromous Belgian Black Bier '
p8
sI8
S'Core Toasted Coconut Ale'
p9
sI9
S'Port Brewing Older Viscosity'
p10
sI10
S'Crooked Stave Raspberry Origins'
p11
sI11
S'1809 Berliner Style Weisse Zymatore - Gin & Pinot Noir Barrels'
p12
sI12
S'Iron Hill Sasquatch'
p13
sI13
S'Funky Buddha Maple Bacon Coffee Porter'
p14
sI14
S'Sweetwater Dank Tank Johnny Hash'
p15
sI15
S'Big Island Red Giant Ale'
p16
sI16
S'Three Floyds Ronaldo (2016 Dark Lord Variant)'
p17
sI17
S'Three Floyds BrooDoo'
p18
sI18
S'Three Floyds Blakkr'
p19
sI19
S'18th Street Bitches\xe4\xf3\xbb Bank - Cognac Barrel Aged '
p20
sI20
S'Three Floyds French Vanilla Militia'
p21
sI21
S'Three Floyds Quit Hitting Yourself'
p22
sI22
S'Three Floyds Arctic Panzer Wolf'
p23
sI23
S'18th Street Barrel Aged Hunter - Wheat Whiskey'
p24
sI24
S'18th Street Bitches\xe4\xf3\xbb Bank'
p25
sI25
S'Three Floyds Alpha Klaus'
p26
sI26
S'Three Floyds Behemoth - Bourbon Barrel'
p27
sI27
S'Three Floyds / The Bruery Rue D\xe4\xf3\xbbFloyd'
p28
sI28
S'Three Floyds Rye Da Tiger'
p29
sI29
S'Three Floyds Permanent Funeral'
p30
sI30
S'Three Floyds Dark Lord Russian Imperial Stout (Aquavit Barrel Aged)'
p31
sI31
S'Three Floyds Alpha King'
p32
sI32
S'Three Floyds Bourbon Barrel Aged Dark Lord De Muerte'
p33
sI33
S'Three Floyds Baller Stout'
p34
sI34
S'Three Floyds Dark Lord Russian Imperial Stout (Cognac Coffee)'
p35
sI35
S'Three Floyds Behemoth'
p36
sI36
S'Three Floyds Zombie Dust'
p37
sI37
S'Three Floyds Dreadnaught Imperial IPA'
p38
sI38
S'Three Floyds Dark Lord Russian Imperial Stout'
p39
sI39
S'Three Floyds Dark Lord Russian Imperial Stout (Bourbon Barrel Aged)'
p40
sI40
S'Three Floyds Dark Lord Russian Imperial Stout (Bourbon Vanilla Bean)'
p41
sI41
S'Grand Teton Wake Up Call Imperial Coffee Porter'
p42
sI42
S'Woodland Empire Beast Moans'
p43
sI43
S'Laughing Dog Hop Dog Harvest Pale Ale'
p44
sI44
S'Sockeye Big Creek Trappist'
p45
sI45
S'Barbarian Big Bad Funky Wolf '
p46
sI46
S'Grand Teton Pursuit of Hoppiness'
p47
sI47
S'Grand Teton Trout Hop Black IPA'
p48
sI48
S'Selkirk Abbey Infidel'
p49
sI49
S'Laughing Dog Anubis Imperial Coffee Porter'
p50
sI50
S'Laughing Dog Sneaky Pete Imperial IPA'
p51
sI51
S'Sockeye Dagger Falls IPA'
p52
sI52
S'Grand Teton 5 O\xe4\xf3\xbbClock Shadow'
p53
sI53
S'Woodland Empire Cozy Up Big Ol\xe4\xf3\xbb Milk Stout'
p54
sI54
S'Laughing Dog Devil Dog Imperial IPA'
p55
sI55
S'Sockeye Hopnoxious Imperial IPA'
p56
sI56
S'Grand Teton Sheep Eater Scotch Ale'
p57
sI57
S'Payette 12 Gauge Imperial Stout'
p58
sI58
S'Grand Teton Brewers Series No. 2 - Brett Saison'
p59
sI59
S'Laughing Dog The Dogfather Imperial Stout - Bourbon Barrel'
p60
sI60
S'Payette 12 Gauge Imperial Stout - Barrel Aged'
p61
sI61
S'Big Horn Tres Amigos Tequila Aged Imperial IPA'
p62
sI62
S'Grand Teton Black Cauldron Imperial Stout'
p63
sI63
S'Grand Teton Double Vision Doppelbock'
p64
sI64
S'Sockeye Barrel Aged Seven Devils Imperial Stout'
p65
sI65
S'Maui Brewing Aloha B\xe4\xf3\xbbak\xe4\xf3\xbbtun'
p66
sI66
S'Maui Brewing Cascadian Dark Belgian Rye IPA'
p67
sI67
S'Maui Brewing Hop Kine'
p68
sI68
S'Honolulu Beerworks South Shore Stout '
p69
sI69
S'Kona Bourbon Barrel Aged Black Sand Porter'
p70
sI70
S'Maui Brewing KGB Woody'
p71
sI71
S'Kauai Island Captain Cook\xe4\xf3\xbbs IPA'
p72
sI72
S'Big Island / Caldera Red Sea Imperial Red Gose'
p73
sI73
S'Kona Black Sand Porter'
p74
sI74
S'Big Island Golden Sabbath'
p75
sI75
S'Maui Brewing Heaven & Hell Barleywine'
p76
sI76
S'Big Island White Mountain Porter'
p77
sI77
S'Maui Brewing Lorenzini Double IPA (6th Sense)'
p78
sI78
S'Big Island Holy Humulus '
p79
sI79
S'Kona Pipeline Porter'
p80
sI80
S'Maui Brewing Freight Trains IPA'
p81
sI81
S'Maui Brewing Shipwreck Stout'
p82
sI82
S'Maui Brewing Big Swell IPA'
p83
sI83
S'Big Island Overboard IPA'
p84
sI84
S'Maui Brewing Double Overhead IPA'
p85
sI85
S'Wrecking Bar Choco Mountain Imperial Breakfast Stout'
p86
sI86
S'Maui Brewing Coconut Hiwa Porter'
p87
sI87
S'Kona Old Blowhole Barley Wine'
p88
sI88
S'Maui Brewing Imperial CoCoNut PorTeR'
p89
sI89
S'Kona Da Grind Buzz Kona Coffee Imperial Stout'
p90
sI90
S'Terrapin Rye Squared'
p91
sI91
S'Red Brick 20th Anniversary '
p92
sI92
S'Wrecking Bar Jemmy American Stout'
p93
sI93
S'Terrapin Side Project Hopzilla Double IPA'
p94
sI94
S'Terrapin Tiramisu-Hoo'
p95
sI95
S'Wrecking Bar Jemmy Dean Breakfast Stout'
p96
sI96
S'5 Seasons North Plan B IPA'
p97
sI97
S'Wrecking Bar Siberius Maximus Russian Imperial Stout'
p98
sI98
S'Terrapin Big Hoppy Monster'
p99
sI99
S'Sweetwater Dank Tank Some Strange'
p100
sI100
S'Burnt Hickory Charred Walls of the Damned'
p101
sI101
S'Terrapin French Toasted W-n-B Coffee Oatmeal Imperial Stout'
p102
sI102
S'Creature Comforts Cosmik Debris'
p103
sI103
S'Sweetwater Bourbon Barrel Aged Imperial Stout'
p104
sI104
S'Creature Comforts See The Stars'
p105
sI105
S'Terrapin Oaked Aged Rye Squared'
p106
sI106
S'Terrapin Cinnamon Roll\xe4\xf3\xbbd Wake-n-Bake'
p107
sI107
S'Terrapin Wake-n-Bake Coffee Oatmeal Imperial Stout'
p108
sI108
S'5 Seasons North Quinte55ence'
p109
sI109
S'Terrapin Substance Abuse Ale'
p110
sI110
S'Terrapin Oaked Wake-n-Bake Coffee Oatmeal Imperial Stout'
p111
sI111
S'Wrecking Bar Mexican Siberius Maximus Russian Imperial Stout'
p112
sI112
S'Funky Buddha Last Snow Porter'
p113
sI113
S'Cigar City Cognac Barrel-Aged Imperial Sweet Stout'
p114
sI114
S'Cycle Wednesday - 2016'
p115
sI115
S'Cigar City Marshal Zhukov\xe4\xf3\xbbs Imperial Stout - Bourbon Barrel'
p116
sI116
S'Cigar City Marshal Zhukov\xe4\xf3\xbbs Penultimate Push'
p117
sI117
S'Cigar City / Mikkeller Nielsbohrium'
p118
sI118
S'Creature Comforts Tropic\xed\xe7lia'
p119
sI119
S'Cycle Pallet 2'
p120
sI120
S'Cycle &+'
p121
sI121
S'Cigar City Marshal Zhukov\xe4\xf3\xbbs Imperial Stout'
p122
sI122
S'Cycle RareR DOS'
p123
sI123
S'Cigar City Caff\xed\xc2 Americano Double Stout'
p124
sI124
S'J. Wakefield Miami Madness'
p125
sI125
S'Cycle Nooner #9'
p126
sI126
S'Funky Buddha Wide Awake It\xe4\xf3\xbbs Morning'
p127
sI127
S'Funky Buddha Morning Wood'
p128
sI128
S'Cycle Nooner #8'
p129
sI129
S'Funky Buddha Last Buffalo in the Park'
p130
sI130
S'J. Wakefield Dragonfruit Passion Fruit (DFPF) Berliner Weisse'
p131
sI131
S'Funky Buddha Snowed In - Bourbon Barrel'
p132
sI132
S'Cycle Four Roses BA Rye Stout'
p133
sI133
S'Cycle Barrel-Aged Hazelnut Imperial Stout'
p134
sI134
S'Cycle / 3 Sons Rare Scooop'
p135
sI135
S'Cigar City Hunahpu\xe4\xf3\xbbs Imperial Stout'
p136
sI136
S'Cigar City Hunahpu\xe4\xf3\xbbs Imperial Stout - Double Barrel Aged'
p137
sI137
S'Dominion Millennium'
p138
sI138
S'Dogfish Head Beer for Breakfast'
p139
sI139
S'Iron Hill Bourbon Porter'
p140
sI140
S'Iron Hill Imperial IPA'
p141
sI141
S'Dogfish Head URKontinent'
p142
sI142
S'Dogfish Head Indian Brown Ale'
p143
sI143
S'Iron Hill Quadrupel (Quadfather)'
p144
sI144
S'Dogfish Head Olde School Barleywine'
p145
sI145
S'Dogfish Head 60 Minute IPA'
p146
sI146
S'Iron Hill Bourbon (Tom) Barleywine'
p147
sI147
S'Dogfish Head Raison D Extra'
p148
sI148
S'Dogfish Head Immort Ale'
p149
sI149
S'Dogfish Head 75 Minute IPA (Cask/Bottle)'
p150
sI150
S'Dogfish Head Burton Baton'
p151
sI151
S'Dogfish Head Squall IPA'
p152
sI152
S'Dogfish Head 120 Minute IPA'
p153
sI153
S'New England Locust Reign'
p154
sI154
S'Iron Hill Oak Aged Quad'
p155
sI155
S'Dominion Millennium Oak Aged'
p156
sI156
S'Dogfish Head Palo Santo Marron'
p157
sI157
S'Iron Hill Russian Imperial Stout'
p158
sI158
S'Dogfish Head Bitches Brew'
p159
sI159
S'Iron Hill Oak Aged Old Tom'
p160
sI160
S'Dogfish Head 90 Minute Imperial IPA'
p161
sI161
S'Dogfish Head World Wide Stout 2001/2003-Present (18%)'
p162
sI162
S'OEC Aeris Singularis (Pinot Noir/Gin Barrel)'
p163
sI163
S'OEC Experimentalis with Peaches (Pedro Ximenez Barrel)'
p164
sI164
S'OEC Exilis'
p165
sI165
S'OEC Aeris'
p166
sI166
S'Two Roads Unorthodox'
p167
sI167
S'Thomas Hooker Imperial Porter'
p168
sI168
S'Willimantic Address Unknown IPA'
p169
sI169
S'OEC Nepenthes'
p170
sI170
S'New England Imperial Stout Trooper (Bourbon)'
p171
sI171
S'OEC Artista Zynergia: Gosatequin (Blend #1)'
p172
sI172
S'Two Roads Igor\xe4\xf3\xbbs Dream - Rye Whiskey Barrel Aged'
p173
sI173
S'New England 668 Chardonneighbor Of The Beast '
p174
sI174
S'OEC Albus'
p175
sI175
S'New England Galaxy Pale Ale'
p176
sI176
S'Thomas Hooker Liberator Doppelbock'
p177
sI177
S'OEC Artista Zynergia: Oudilis'
p178
sI178
S'Willimantic Willi Whammer'
p179
sI179
S'New England G-Bot Double IPA'
p180
sI180
S'OEC Experimentalis With Meyer Lemons (Pinot Noir/Gin Barrel)'
p181
sI181
S'New England Supernaut IPA'
p182
sI182
S'New England Imperial Stout Trooper'
p183
sI183
S'New England Fuzzy Baby Ducks IPA '
p184
sI184
S'New England Coriolis'
p185
sI185
S'Casey Dry Hopped Oak Theory - Galaxy & Simcoe'
p186
sI186
S'Crooked Stave Silly Cybies'
p187
sI187
S'WeldWerks Coffee Maple Achromatic'
p188
sI188
S'Great Divide Hercules Double IPA'
p189
sI189
S'Avery The Maharaja Imperial India Pale Ale'
p190
sI190
S'New Belgium Love - Felix-Oscar Blend - Blackberry Whiskey Barrel'
p191
sI191
S'New Belgium La Folie'
p192
sI192
S'Avery Mephistopheles Stout'
p193
sI193
S'Casey Brett Loves Citra'
p194
sI194
S'Medovina Sweet Melissa'
p195
sI195
S'Great Divide Yeti Imperial Stout - Chocolate Oak Aged '
p196
sI196
S'Avery Tweak'
p197
sI197
S'Crooked Stave Petite Sour Hibiscus & Cinnamon (Apple/Peach Whiskey)'
p198
sI198
S'Casey The Cut: Balaton Cherry'
p199
sI199
S'Great Divide Yeti Imperial Stout - Barrel Aged'
p200
sI200
S'Crooked Stave Nightmare on Brett (Raspberry)'
p201
sI201
S'Oskar Blues Ten FIDY - Stranahan\xe4\xf3\xbbs Colorado Whiskey Barrel'
p202
sI202
S'Great Divide Yeti Imperial Stout'
p203
sI203
S'Oskar Blues Ten FIDY - Barrel Aged'
p204
sI204
S'Avery Barrel-Aged Series 36 - Callipygian'
p205
sI205
S'Oskar Blues Ten FIDY'
p206
sI206
S'Great Divide Yeti Imperial Stout - Espresso Oak Aged '
p207
sI207
S'Avery Uncle Jacob\xe4\xf3\xbbs Stout'
p208
sI208
S'Great Divide Yeti Imperial Stout - Oak Aged '
p209
sI209
S'North Coast Old Rasputin (Bourbon Barrel)'
p210
sI210
S'Lost Abbey The Angels Share - Bourbon Barrel'
p211
sI211
S'Russian River Beatification (Batch 002 +)'
p212
sI212
S'Russian River Consecration'
p213
sI213
S'Lost Abbey Duck Duck Gooze '
p214
sI214
S'AleSmith Speedway Stout - Vanilla & Coconut'
p215
sI215
S'Lost Abbey Box Set: Track #10 (Bat out of Hell)'
p216
sI216
S'Lost Abbey Box Set: Track #6 (Highway to Hell)'
p217
sI217
S'Hangar 24 Barrel Roll: Pugachev Royale'
p218
sI218
S'Stone Imperial Russian Stout'
p219
sI219
S'Russian River Supplication'
p220
sI220
S'Stone Imperial Russian Stout - Bourbon Barrel'
p221
sI221
S'Vinos Octoberfest'
p222
sI222
S'Fossil Cove La Brea Brown'
p223
sI223
S'Firestone Walker Parabola'
p224
sI224
S'Lost Abbey Cable Car'
p225
sI225
S'AleSmith Speedway Stout - Vietnamese Coffee'
p226
sI226
S'AleSmith Speedway Stout - Brewer\xe4\xf3\xbbs Blend: Vietnamese Coffee'
p227
sI227
S'Alpine Beer Company Keene Idea'
p228
sI228
S'AleSmith Speedway Stout - Velvet'
p229
sI229
S'AleSmith Speedway Stout - Hawaiian'
p230
sI230
S'Russian River Pliny the Elder'
p231
sI231
S'AleSmith Speedway Stout'
p232
sI232
S'AleSmith Speedway Stout - Bourbon Barrel Aged'
p233
sI233
S'Russian River Pliny the Younger'
p234
sI234
S'AleSmith Speedway Stout - Bourbon Barrel Aged: Vietnamese Coffee'
p235
sI235
S'Vinos Rainbow Wheat'
p236
sI236
S'Diamond Bear Presidential IPA'
p237
sI237
S'Core Hilltop IPA'
p238
sI238
S'Diamond Bear Strawberry Blonde'
p239
sI239
S'Core Easy Livin\xe4\xf3\xbb IPA'
p240
sI240
S'Moody Brews Half Seas Over Imperial IPA'
p241
sI241
S'Diamond Bear Dogtown Brown'
p242
sI242
S'Diamond Bear Two Term Double IPA'
p243
sI243
S'Vinos Lazyboy Stout'
p244
sI244
S'Diamond Bear Paradise Porter'
p245
sI245
S'Vinos Holidaze'
p246
sI246
S'Vinos Pinnacle IPA'
p247
sI247
S'Core Barney\xe4\xf3\xbbs Imperial Red'
p248
sI248
S'Ozark Cream Stout'
p249
sI249
S'Core ESB'
p250
sI250
S'Lost Forty Pale Ale'
p251
sI251
S'Vinos Imperial Stout'
p252
sI252
S'Core Oatmeal Stout'
p253
sI253
S'Ozark Onyx Coffee Stout'
p254
sI254
S'Vinos Rock Hopera Imperial IPA'
p255
sI255
S'Ozark American Pale Ale'
p256
sI256
S'Ozark Bourbon Barrel Aged Double Cream Stout'
p257
sI257
S'Thunder Canyon Warhead Stout'
p258
sI258
S'Four Peaks Double Knot'
p259
sI259
S'Superstition Marion Mead - Sparkling'
p260
sI260
S'Superstition Fruit of Venus'
p261
sI261
S'Superstition Date Night'
p262
sI262
S'Superstition Aphrodisia Pyment - Syrah/Grenache'
p263
sI263
S'Superstition Aphrodisia Pyment - Cabernet/Syrah'
p264
sI264
S'Superstition Aphrodisia Pyment - Cabernet/Pinot Noir/Syrah'
p265
sI265
S'Superstition Marion Mead - Still'
p266
sI266
S'Superstition Super Bee'
p267
sI267
S'Arizona Wilderness Picacho Pecan Pie Brown Ale'
p268
sI268
S'Arizona Wilderness DC Mountain Double IPA'
p269
sI269
S'Arizona Wilderness American Presidential Stout'
p270
sI270
S'Sun Up White Russian Imperial Stout '
p271
sI271
S'Superstition Peanut Butter Jelly Crime'
p272
sI272
S'Superstition Grand Cru Berry'
p273
sI273
S'Superstition Framboesa Atando'
p274
sI274
S'Superstition Black Berry White'
p275
sI275
S'Superstition Aphrodisia Pyment - Cabernet '
p276
sI276
S'Dragoon Lazarus'
p277
sI277
S'Superstition Straw Berry White'
p278
sI278
S'Superstition Endovelicus'
p279
sI279
S'Superstition Blue Berry White '
p280
sI280
S'Superstition Berry White'
p281
sI281
S'Anchorage Whiteout Wit Bier'
p282
sI282
S'Anchorage The Experiment'
p283
sI283
S'Midnight Sun XXX Black Double IPA'
p284
sI284
S'Midnight Sun 2014 Alaskana Series: Termination Dust'
p285
sI285
S'Midnight Sun 2009 Crew Brews: Brewtality'
p286
sI286
S'Midnight Sun Monk\xe4\xf3\xbbs Mistress (Bourbon)'
p287
sI287
S'Anchorage Galaxy White IPA'
p288
sI288
S'Anchorage / Jolly Pumpkin Calabaza Boreal '
p289
sI289
S'Alaskan Pilot Series: Barley Wine Ale'
p290
sI290
S'Midnight Sun T.R.E.A.T. Imperial Chocolate Pumpkin Porter'
p291
sI291
S'Anchorage The Tide and Its Takers Triple'
p292
sI292
S'Anchorage Mosaic Saison'
p293
sI293
S'Alaskan Smoked Porter'
p294
sI294
S'Midnight Sun Moscow'
p295
sI295
S'Midnight Sun Monk\xe4\xf3\xbbs Mistress'
p296
sI296
S'Anchorage Love Buzz Saison'
p297
sI297
S'Anchorage Darkest Hour Imperial Stout (2014-)'
p298
sI298
S'Anchorage Bitter Monk Belgian Style Double IPA'
p299
sI299
S'Midnight Sun Arctic Devil'
p300
sI300
S'Anchorage Time Waits For No One'
p301
sI301
S'Anchorage A Deal With The Devil Barleywine'
p302
sI302
S'Midnight Sun 2010 Pop Ten: Barfly'
p303
sI303
S'Midnight Sun Berserker'
p304
sI304
S'Midnight Sun 2007 Deadly Sins: Sloth'
p305
sI305
S'Straight To Ale He Ain\xe4\xf3\xbbt Heffe'
p306
sI306
S'Salty Nut Dahkness Stout'
p307
sI307
S'Back Forty Trade Day Cuban Coffee Stout'
p308
sI308
S'Straight To Ale Vern\xe4\xf3\xbbs Wheat Wine'
p309
sI309
S'Good People Hitchhiker American IPA'
p310
sI310
S'Blue Pants Pinstripe Candy Bar Stout'
p311
sI311
S'Avondale Vanillaphant Porter'
p312
sI312
S'Fairhope Painted Black IPA'
p313
sI313
S'Straight To Ale Monkeynaut IPA'
p314
sI314
S'Blue Pants Weedy\xe4\xf3\xbbs Double IPA'
p315
sI315
S'Straight To Ale Illudium'
p316
sI316
S'Good People Coffee Oatmeal Stout'
p317
sI317
S'Beer Engineers Peanut Butter Porter'
p318
sI318
S'Straight To Ale Monkey\xe4\xf3\xbbs Uncle IIPA'
p319
sI319
S'Straight To Ale Unobtanium'
p320
sI320
S'Good People Fatso Imperial Stout'
p321
sI321
S'Straight To Ale Velvet Evil'
p322
sI322
S'Straight To Ale Gorillanaut Imperial IPA'
p323
sI323
S'Good People Snake Handler'
p324
sI324
S'Straight To Ale Laika Russian Imperial Stout - Cabernet Barrel Aged'
p325
sI325
S'SPB Lazarus'
p326
sI326
S'Goose Island Bourbon County Stout'
p327
sI327
S'Goose Island Bourbon County Stout - Rare 2015'
p328
sI328
S'Goose Island Bourbon County Stout - Coffee'
p329
sI329
S'Goose Island Bourbon County Barleywine'
p330
sI330
S'Flossmoor Station Pretty Big IPA'
p331
sI331
S'Peace Tree Hop Sutra'
p332
sI332
S'Blind Tiger Top Gun IPA'
p333
sI333
S'Bluegrass Bourbon Barrel Smoked Stout'
p334
sI334
S'Parish Envie Pale Ale'
p335
sI335
S'Maine Beer Zoe'
p336
sI336
S'DuClaw Black Jack Stout'
p337
sI337
S'Tree House Green'
p338
sI338
S'Bell\x89\xdb\xaas Two Hearted Ale'
p339
sI339
S'Town Hall Ol Jack Frost'
p340
sI340
S'Side Project Blanc de Blancs'
p341
sI341
S'Big Sky Shake-a-Day Mai Tai IPA'
p342
sI342
S'Lewis and Clark Tumbleweed IPA'
p343
sI343
S'Yellowstone Valley Numbskull IPA'
p344
sI344
S'Montana Brewing Custers Last Stout'
p345
sI345
S'Big Sky Shake-A-Day India Pale Ale'
p346
sI346
S'Big Hole Head Smashed In '
p347
sI347
S'Bozeman Bozone Plum St. Porter '
p348
sI348
S'Bozeman Bozone HopZone IPA'
p349
sI349
S'Big Sky Biere de Noel'
p350
sI350
S'Big Sky Rye Pale Ale'
p351
sI351
S'Big Sky IPA'
p352
sI352
S'Bitter Root Single Hop Ale - CTZ'
p353
sI353
S'The Front Mountain Man Scotch Ale'
p354
sI354
S'Draught Works Scepter Head IPA'
p355
sI355
S'Carters Saison De Carter'
p356
sI356
S'Big Sky Cowboy Coffee Porter'
p357
sI357
S'Bitter Root Last Cast Black IPA'
p358
sI358
S'Kettle House Olde Bongwater Hemp Porter'
p359
sI359
S'Montana Brewing Beartooth Espresso Porter'
p360
sI360
S'Flathead Lake The Imperial IPA'
p361
sI361
S'Big Sky Bobo\x89\xdb\xaas Robust Porter'
p362
sI362
S'Carters De-Railed IPA'
p363
sI363
S'Big Sky Olde Bluehair Barleywine'
p364
sI364
S'Big Sky Ivan The Terrible Imperial Stout '
p365
sI365
S'Big Sky Ivan the Terrible Imperial Stout - Bourbon Barrel'
p366
sI366
S'Side Project / De Garde Orviamo'
p367
sI367
S'Boulevard Smokestack Series: Saison-Brett'
p368
sI368
S'Side Project Saison du Fermier'
p369
sI369
S'Perennial Barrel Aged Sump (Rwandan Kyoto)'
p370
sI370
S'Side Project Unblended (Barrel #40)'
p371
sI371
S'Side Project Saison du Bl\xcc\xa9'
p372
sI372
S'Perennial Vanilla Abraxas'
p373
sI373
S'Perennial Maman'
p374
sI374
S'Perennial Coffee Abraxas'
p375
sI375
S'Side Project One Candle'
p376
sI376
S'Perennial Barrel Aged Sump'
p377
sI377
S'Mother\x89\xdb\xaas MILF'
p378
sI378
S'Side Project Thicket'
p379
sI379
S'Side Project Fuzzy'
p380
sI380
S'Side Project Bleuet du Fermier'
p381
sI381
S'Side Project Abricot du Fermier'
p382
sI382
S'Perennial Sump'
p383
sI383
S'Perennial Blue Label Maman - Evan Williams 23 '
p384
sI384
S'Side Project Framboise du Fermier'
p385
sI385
S'Side Project Derivation Blend #3'
p386
sI386
S'Perennial Abraxas'
p387
sI387
S'Side Project Derivation Blend #2'
p388
sI388
S'Side Project Derivation Blend #1'
p389
sI389
S'Perennial Barrel Aged Abraxas'
p390
sI390
S'Lazy Magnolia Me and the Dev-Ale'
p391
sI391
S'SPB Cicada Series Suzy Smash'
p392
sI392
S'SPB Devil\x89\xdb\xaas Harvest American Pale Ale (Redux) (2016 - )'
p393
sI393
S'SPB Cicada Series Hipster Breakfast'
p394
sI394
S'SPB Sinister Minister'
p395
sI395
S'SPB Jack the Sipper'
p396
sI396
S'Chandeleur Curlew\x89\xdb\xaas Toasted Coconut Porter'
p397
sI397
S'SPB Devil\x89\xdb\xaas Harvest Extra Pale Ale (-2016)'
p398
sI398
S'Lazy Magnolia Jefferson Stout'
p399
sI399
S'Chandeleur Lil Smack IPA'
p400
sI400
S'SPB Mississippi Fire Ant'
p401
sI401
S'Lazy Magnolia Gulf Porter'
p402
sI402
S'SPB Cicada Series 2014 IPA'
p403
sI403
S'Lazy Magnolia Black Creek Southern Style Imperial Stout'
p404
sI404
S'Lazy Magnolia Ginger Jaque'
p405
sI405
S'Lazy Magnolia Southern Hops\x89\xdb\xaapitality'
p406
sI406
S'SPB Cicada Series 2015 IPA'
p407
sI407
S'Lazy Magnolia 10'
p408
sI408
S'Crooked Letter Mystery Romp'
p409
sI409
S'SPB Mississippi Fire Ant: Bourbon Barrel Aged '
p410
sI410
S'SPB Cicada Series R\x80\xc4gana Baltic Porter'
p411
sI411
S'Lazy Magnolia Southern Gentleman'
p412
sI412
S'Lazy Magnolia Timber Beast'
p413
sI413
S'SPB Crowd Control'
p414
sI414
S'Brau Brothers Rye Wyne Ale 2011'
p415
sI415
S'Indeed D.I.D.D.C.W.Q.M.S'
p416
sI416
S'Town Hall Twisted Trace'
p417
sI417
S'Surly Blakkr'
p418
sI418
S'Schell Noble Star - Starkeller Peach'
p419
sI419
S'Town Hall Coconut Milk Stout'
p420
sI420
S'Surly Wet 2012 & 2015'
p421
sI421
S'Lift Bridge Silhouette Bourbon Barrel Aged Russian Imperial Stout'
p422
sI422
S'Bent Paddle Double Shot Double Black'
p423
sI423
S'Fitgers Edmund Imperial Stout (Bourbon Barrel)'
p424
sI424
S'Town Hall Wee Heavy'
p425
sI425
S'Dangerous Man Peanut Butter Porter'
p426
sI426
S'Town Hall Masala Mama IPA'
p427
sI427
S'Surly Furious'
p428
sI428
S'Steel Toe Before the Dawn'
p429
sI429
S'Surly / Amager Todd - The Axe Man (Surly Version)'
p430
sI430
S'Surly Four'
p431
sI431
S'Town Hall Russian Roulette'
p432
sI432
S'Town Hall Czar Jack Imperial Stout'
p433
sI433
S'Barley Johns Rosies Ale'
p434
sI434
S'Surly Abrasive Ale'
p435
sI435
S'Surly Darkness 2014 - Bottled'
p436
sI436
S'Barley Johns The Dark Knight (Returns)'
p437
sI437
S'Surly Darkness'
p438
sI438
S'Bell\x89\xdb\xaas Bourbon Barrel Batch 9000 Ale  '
p439
sI439
S'Bell\x89\xdb\xaas Traverse City Whiskey Barrel-Aged Expedition Stout'
p440
sI440
S'Schramm\x89\xdb\xaas Raspberry'
p441
sI441
S'Founders Imperial Stout'
p442
sI442
S'The Livery Bourbon Barrel Aged Wheat Trippelbock'
p443
sI443
S'Schramm\x89\xdb\xaas Apple'
p444
sI444
S'Perrin No Rules Vietnamese Porter'
p445
sI445
S'Kuhnhenn Fourth Dementia (4D) Old Ale - Bourbon Barrel '
p446
sI446
S'Founders Bourbon Barrel Imperial Stout'
p447
sI447
S'Schramm\x89\xdb\xaas The Statement'
p448
sI448
S'Founders Breakfast Stout'
p449
sI449
S'Bell\x89\xdb\xaas Hopslam'
p450
sI450
S'Kuhnhenn Bourbon Barrel French Toast Mead'
p451
sI451
S'Dark Horse Bourbon Barrel Plead the 5th Imperial Stout'
p452
sI452
S'Schramm\x89\xdb\xaas The Statement - Reserve'
p453
sI453
S'Schramm\x89\xdb\xaas Black Agnes'
p454
sI454
S'Schramm\x89\xdb\xaas Cranberry'
p455
sI455
S'Schramm\x89\xdb\xaas Red Agnes'
p456
sI456
S'Bell\x89\xdb\xaas Bourbon Barrel-Aged Expedition Stout'
p457
sI457
S'Bell\x89\xdb\xaas Expedition Stout'
p458
sI458
S'Founders KBS (Kentucky Breakfast Stout)'
p459
sI459
S'Bell\x89\xdb\xaas Black Note Stout'
p460
sI460
S'Schramm\x89\xdb\xaas The Heart of Darkness'
p461
sI461
S'Schramm\x89\xdb\xaas Madeline'
p462
sI462
S'Trillium Congress Street IPA'
p463
sI463
S'Trillium Mettle'
p464
sI464
S'Tree House Double Shot'
p465
sI465
S'Trillium Melcher Street IPA'
p466
sI466
S'Trillium Summer Street IPA - Double Dry Hopped'
p467
sI467
S'Trillium Headroom'
p468
sI468
S'Tree House In Perpetuity'
p469
sI469
S'Trillium Scaled - Double Dry Hopped'
p470
sI470
S'Samuel Adams Utopias'
p471
sI471
S'Trillium Fort Point Pale Ale'
p472
sI472
S'Tree House Haze'
p473
sI473
S'Trillium Fort Point Pale Ale - Galaxy Dry Hopped'
p474
sI474
S'Trillium Congress Street IPA - Double Dry Hopped'
p475
sI475
S'Trillium Fort Point Pale Ale - Double Dry Hopped'
p476
sI476
S'Trillium Upper Case'
p477
sI477
S'Tree House Juice Machine (2015- )'
p478
sI478
S'Tree House Doppelganger'
p479
sI479
S'Trillium Fort Point Pale Ale - Mosaic Dry Hopped'
p480
sI480
S'Tree House Very Hazy'
p481
sI481
S'Tree House Julius'
p482
sI482
S'Trillium Melcher Street IPA - Double Dry Hopped'
p483
sI483
S'Trillium Vicinity'
p484
sI484
S'Tree House Alter Ego'
p485
sI485
S'Tree House Good Morning'
p486
sI486
S'Stillwater Beer Table - Table Beer'
p487
sI487
S'Flying Dog Imperial IPA - Citra Single Hop'
p488
sI488
S'Flying Dog Double Dog Double Pale Ale'
p489
sI489
S'Stillwater Even Less Jesus (Remix)'
p490
sI490
S'Flying Dog Brewhouse Rarities: Smoked Belgian Stout'
p491
sI491
S'Stillwater Contemporary Works - Surround'
p492
sI492
S'Flying Dog Barrel-Aged Horn Dog'
p493
sI493
S'DuClaw Retribution'
p494
sI494
S'Stillwater / Mikkeller Rauchstar'
p495
sI495
S'Flying Dog Kujo'
p496
sI496
S'DuClaw Repent'
p497
sI497
S'Stillwater Import Series Vol. 5 \x89\xdb\xaaDebauched\x89\xdb\xaa - Brunello Barrel'
p498
sI498
S'Stillwater Give-Way'
p499
sI499
S'Heavy Seas Uncharted Waters: Siren Noire (2013 -)'
p500
sI500
S'Stillwater Barrel Aged Series - Folklore, the tale of Van Winkle'
p501
sI501
S'Stillwater Barrel Aged Series - Cellar Door'
p502
sI502
S'Stillwater / Casita Cerveceria On Fleek'
p503
sI503
S'Stillwater G13'
p504
sI504
S'Stillwater Barrel Aged Series - Stateside Saison'
p505
sI505
S'DuClaw Oak Aged Black Jack Stout'
p506
sI506
S'Heavy Seas Uncharted Waters: Blackbeard\x89\xdb\xaas Breakfast'
p507
sI507
S'Flying Dog Wild Dog Barrel-Aged Gonzo '
p508
sI508
S'Flying Dog Gonzo Imperial Porter '
p509
sI509
S'Stillwater Gose Gone Wild'
p510
sI510
S'Maine Beer King Titus'
p511
sI511
S'Allagash St. Klippenstein'
p512
sI512
S'Allagash Nancy'
p513
sI513
S'Allagash Coolship Cerise'
p514
sI514
S'Maine Beer Weez'
p515
sI515
S'Maine Beer II'
p516
sI516
S'Allagash Tripel Reserve'
p517
sI517
S'Allagash Interlude'
p518
sI518
S'Allagash Tiarna'
p519
sI519
S'Allagash Golden Brett'
p520
sI520
S'Allagash Farm to Face'
p521
sI521
S'Allagash Merveilleux'
p522
sI522
S'Allagash Coolship Red'
p523
sI523
S'Oxbow / Stillwater Stillbow Oxtisanal'
p524
sI524
S'Allagash Century Ale'
p525
sI525
S'Allagash Avanc\xcc\xa9'
p526
sI526
S'Maine Beer MO'
p527
sI527
S'Maine Beer I'
p528
sI528
S'Foundation Epiphany IPA'
p529
sI529
S'NOLA / 7venth Sun House of the Rising'
p530
sI530
S'NOLA Girl Stout Cookie'
p531
sI531
S'Bissell Brothers Swish'
p532
sI532
S'Maine Beer Lunch'
p533
sI533
S'Maine Beer Another One'
p534
sI534
S'Allagash Cuv\xcc\xa9e d\x89\xdb\xaaIndustrial'
p535
sI535
S'Maine Beer Dinner'
p536
sI536
S'Abita Select Imperator'
p537
sI537
S'Abita Wrought Iron IPA'
p538
sI538
S'Bayou Teche Saison d\x89\xdb\xaaEcrevisse (-2015)'
p539
sI539
S'Great Raft All My Tomorrows'
p540
sI540
S'Parish Dr Hoptagon'
p541
sI541
S'Bayou Teche Biere Joi Barrel Aged'
p542
sI542
S'Great Raft Reasonably Corrupt Schwarzbier'
p543
sI543
S'Abita Bourbon Street Baltic Porter'
p544
sI544
S'Parish Grand Reserve'
p545
sI545
S'Abita Bourbon Street Coffee Stout'
p546
sI546
S'Parish Opus Vert'
p547
sI547
S'NOLA Irish Channel Stout'
p548
sI548
S'NOLA Sauvage'
p549
sI549
S'Chafunkta Old 504 Porter'
p550
sI550
S'Bayou Teche Loup Garou'
p551
sI551
S'Abita Macchiato Espresso Milk Stout'
p552
sI552
S'Abita Bourbon Street Barrel Aged Imperial Stout'
p553
sI553
S'Parish Farmhouse IPA'
p554
sI554
S'Abita Shotgun Double IPA'
p555
sI555
S'NOLA Piety'
p556
sI556
S'NOLA Lowerline'
p557
sI557
S'Parish Ghost In The Machine'
p558
sI558
S'Country Boy Papaw\x89\xdb\xaas Red Ale'
p559
sI559
S'West Sixth IPA'
p560
sI560
S'Against the Grain Tropical Segway Kitten'
p561
sI561
S'Bluegrass Russian Imperial Porter'
p562
sI562
S'Braxton Dead Blow - Starter Coffee'
p563
sI563
S'Bluegrass Bearded Pats Barleywine Style Ale'
p564
sI564
S'West Sixth Snakes In A Barrel '
p565
sI565
S'Against the Grain Gnight Ryder'
p566
sI566
S'Against the Grain Rico Sauvin'
p567
sI567
S'Against the Grain The Green Dragon'
p568
sI568
S'Against the Grain Citra Ass Down'
p569
sI569
S'Against the Grain 35K Stout'
p570
sI570
S'Country Boy 4th Anniversary Wild Red Ale'
p571
sI571
S'West Sixth Snake Eyes Imperial Stout '
p572
sI572
S'Against the Grain / Dry & Bitter Your Lytest One'
p573
sI573
S'Bluegrass Cherry Inyouendo'
p574
sI574
S'Bluegrass Bourbon Barrel Russian Imperial Porter'
p575
sI575
S'Country Boy Infinite Sadness'
p576
sI576
S'Against the Grain London Balling'
p577
sI577
S'Against the Grain Brett The Hipman Hop'
p578
sI578
S'Against the Grain / To \xcc\xf7l An Ale Pleasure'
p579
sI579
S'Quaff Bros Full Allotment'
p580
sI580
S'Against the Grain / De Molen Bo & Luke'
p581
sI581
S'Against the Grain 70K'
p582
sI582
S'Defiance Fuzzy Knuckles'
p583
sI583
S'Free State Hop Picker Pale Ale'
p584
sI584
S'Liquid Bread Liberty Stout'
p585
sI585
S'Tallgrass 16-Bit DPA'
p586
sI586
S'Blind Tiger Java Porter'
p587
sI587
S'Free State Hop Jack Ale'
p588
sI588
S'Free State Belgian Muse IPA'
p589
sI589
S'Liquid Bread Oatmeal Stout'
p590
sI590
S'Free State Stormwatch Dark Ale'
p591
sI591
S'Tallgrass Vanilla Bean Buffalo Sweat'
p592
sI592
S'Blind Tiger Russian Imperial Stout'
p593
sI593
S'Tallgrass Vanilla Bean Buffalo Sweat - Bourbon Barrel & Cinnamon'
p594
sI594
S'Free State Winterfest IPA'
p595
sI595
S'Free State Octoberfest'
p596
sI596
S'Tallgrass Wooden Rooster'
p597
sI597
S'Free State C4 Imperial Black IPA'
p598
sI598
S'Madhouse Carpe Diem'
p599
sI599
S'Tallgrass Big Ricc'
p600
sI600
S'Tallgrass Ethos IPA'
p601
sI601
S'Free State Black Jack Porter'
p602
sI602
S'Free State Ironman Imperial Stout'
p603
sI603
S'Tallgrass Zombie Monkie'
p604
sI604
S'Free State Cloud Hopper Imperial IPA'
p605
sI605
S'Free State Old Backus Barleywine'
p606
sI606
S'Free State Owd Macs Imperial Stout'
p607
sI607
S'Toppling Goliath Hopsmack!'
p608
sI608
S'Toppling Goliath Xhops Series - Gamma'
p609
sI609
S'Toppling Goliath ReGifter Double IPA'
p610
sI610
S'Toppling Goliath XHops Series - Green'
p611
sI611
S'Toppling Goliath pseudoSue - Citra Double Dry Hopped'
p612
sI612
S'Toppling Goliath / Mikkeller Nelson Schmelsson'
p613
sI613
S'Peace Tree No Coast IPA'
p614
sI614
S'Toppling Goliath Thresher IPA '
p615
sI615
S'Toppling Goliath Galaxy Dry Hopped pseudoSue'
p616
sI616
S'Toppling Goliath Intergalactic Warrior IPA'
p617
sI617
S'Toppling Goliath Golden Nugget IPA'
p618
sI618
S'Toppling Goliath XHops Series - Gold'
p619
sI619
S'Toppling Goliath Light Speed Pale Ale'
p620
sI620
S'Toppling Goliath Mosaic Dry Hopped pseudoSue'
p621
sI621
S'Toppling Goliath Sol Hunter Pale Ale'
p622
sI622
S'Toppling Goliath ZeeLander'
p623
sI623
S'Toppling Goliath / Tree House David'
p624
sI624
S'Toppling Goliath Pompeii IPA'
p625
sI625
S'Toppling Goliath Twisted Galaxy'
p626
sI626
S'Toppling Goliath Sosus'
p627
sI627
S'Toppling Goliath pseudoSue'
p628
sI628
S'Toppling Goliath King Sue'
p629
sI629
S'Toppling Goliath Mornin\x89\xdb\xaa Delight'
p630
sI630
S'Revolution Gravedigger Billy'
p631
sI631
S'Half Acre Double Daisy Cutter'
p632
sI632
S'Revolution Deth\x89\xdb\xaas Tar'
p633
sI633
S'Half Acre Beer Hates Astronauts'
p634
sI634
S'Pipeworks Emerald Grouper '
p635
sI635
S'Haymarket Indignant Imperial Stout - Bourbon Barrel'
p636
sI636
S'Haymarket Clare\x89\xdb\xaas Thirsty Ale'
p637
sI637
S'Revolution Barrel Aged Institutionalized Barley Wine'
p638
sI638
S'Pipeworks Unicorn Galaxy Imperial IPA'
p639
sI639
S'Destihl Dosvidanya Russian Imperial Stout'
p640
sI640
S'Half Acre Galactic Double Daisy Cutter'
p641
sI641
S'Goose Island Bourbon County Stout - Templeton Rye Barrel'
p642
sI642
S'Goose Island Imperial IPA'
p643
sI643
S'Pipeworks Ninja Vs Unicorn Double IPA'
p644
sI644
S'Goose Island Nutulhu'
p645
sI645
S'Pipeworks Crimson Snapper'
p646
sI646
S'Pipeworks Citra Imperial IPA'
p647
sI647
S'Goose Island Night Stalker'
p648
sI648
S'Goose Island Cthulhu'
p649
sI649
S'Goose Island Bourbon County Stout - Regal Rye Barrel'
p650
sI650
S'Fargo Mighty Red'
p651
sI651
S'Nebraska Reserve Series Barrel Aged HopAnomaly'
p652
sI652
S'Nebraska Reserve Series Sexy Betty'
p653
sI653
S'Nebraska Reserve Series Black Betty Russian Imperial Stout'
p654
sI654
S'Nebraska New Oak-aged Rye IPA'
p655
sI655
S'Lucky Bucket Certified Evil 2010'
p656
sI656
S'Great Basin Tectonic Event IPA'
p657
sI657
S'Smuttynose Julio?\xdb?s Fashionably Old Ale'
p658
sI658
S'Ramstein Winter Wheat'
p659
sI659
S'Bosque (NM) Scale Tipper IPA'
p660
sI660
S'Grimm Lambo Door'
p661
sI661
S'Wicked Weed White Angel'
p662
sI662
S'Hoppin?\xdb? Frog Barrel Aged BORIS Bairille Aois'
p663
sI663
S'Prairie Americana'
p664
sI664
S'Upright Fantasia'
p665
sI665
S'Selins Grove Pumpkin Ale'
p666
sI666
S'Revival White Electric Coffee Stout'
p667
sI667
S'Newport Storm Cyclone Series Vlad'
p668
sI668
S'Union Station Vanilla Bean Porter'
p669
sI669
S'Trinity Russian Imperial Stout'
p670
sI670
S'Grey Sail Pour Judgement IPA'
p671
sI671
S'Narragansett Private Stock Imperial Russian Stout'
p672
sI672
S'Proclamation Tendril'
p673
sI673
S'Newport Storm Cyclone Series Zach'
p674
sI674
S'Narragansett Autocrat Coffee Milk Stout'
p675
sI675
S'Foolproof Raincloud Porter'
p676
sI676
S'Union Station Half Day IPA'
p677
sI677
S'Foolproof Shuckolate'
p678
sI678
S'Revival Burnsider Pale Ale'
p679
sI679
S'Proclamation zzzlumber'
p680
sI680
S'Proclamation Zzzlumber - Barrel-Aged'
p681
sI681
S'Revival Double Black IPA'
p682
sI682
S'Trinity Decadence Imperial IPA'
p683
sI683
S'Grey Sail Stargazer Imperial Stout'
p684
sI684
S'Proclamation Derivative Mosaic Hopped Pale Ale'
p685
sI685
S'Foolproof Revery Russian Imperial Stout'
p686
sI686
S'Proclamation Keraterra (Citra/Amarillo)'
p687
sI687
S'Proclamation Derivative Citra Hopped Pale Ale'
p688
sI688
S'Proclamation Postcursor'
p689
sI689
S'Proclamation Derivative Galaxy Hopped Pale Ale'
p690
sI690
S'Grey Sail Captain?\xdb?s Daughter'
p691
sI691
S'Tr??egs Nugget Nectar Ale'
p692
sI692
S'Forest & Main Paradisaea'
p693
sI693
S'Tired Hands Virgins & Diamonds'
p694
sI694
S'Selins Grove Bourbon St. Fillans Wee Heavy'
p695
sI695
S'Bullfrog Le Roar Grrrz Kriek'
p696
sI696
S'Bullfrog Le Roar Grrrz Aardbei'
p697
sI697
S'Bullfrog Le Roar Grrrz Plum'
p698
sI698
S'Bullfrog Le Roar Grrrz'
p699
sI699
S'Tired Hands Pineal IPA'
p700
sI700
S'Tired Hands We Are All Infinite Energy Vibrating at the Same Frequency'
p701
sI701
S'Voodoo The K13'
p702
sI702
S'Voodoo Grande Negro Voodoo Papi (Laird?\xdb?s Apple Brandy)'
p703
sI703
S'Bullfrog Le Roar Grrrz Apricot '
p704
sI704
S'Tired Hands Sticky Drippy Crystals'
p705
sI705
S'Victory Old Horizontal'
p706
sI706
S'Victory Storm King Imperial Stout'
p707
sI707
S'Pizza Boy Sunny Side Up - Double Coffee'
p708
sI708
S'Bullfrog Et Tu Brut'
p709
sI709
S'Bullfrog Le Roar Grrrz Druiven'
p710
sI710
S'Selins Grove The Phoenix Kriek'
p711
sI711
S'Ottos Bourbon-Barrel Aged Jolly Roger Imperial Stout'
p712
sI712
S'Voodoo Grande Negro Voodoo Papi (Bourbon Barrel Aged) '
p713
sI713
S'Voodoo ManBearPig'
p714
sI714
S'Cascade Noyaux'
p715
sI715
S'Upright Flora Rustica (Barrel Aged)'
p716
sI716
S'Rogue Double Chocolate Stout'
p717
sI717
S'Hair of the Dog Otto from the Wood'
p718
sI718
S'De Garde / Side Project Saison Desay - Chardonnay Barrel'
p719
sI719
S'De Garde Cherry Raz Bu'
p720
sI720
S'De Garde The Anniversary'
p721
sI721
S'Hair of the Dog Doggie Claws (2003-)'
p722
sI722
S'De Garde Imperial Black Raz Bu'
p723
sI723
S'Deschutes Black Butte XXVIII'
p724
sI724
S'Hair of the Dog Cherry Adam from the Wood'
p725
sI725
S'Pelican Mother of all Storms'
p726
sI726
S'Boneyard Notorious IPA3'
p727
sI727
S'De Garde The Broken Truck'
p728
sI728
S'Logsdon Peche ?\xdb?n Brett'
p729
sI729
S'Block 15 Turbulent Consequence: P??che'
p730
sI730
S'Deschutes The Abyss - Rye Whiskey'
p731
sI731
S'Hair of the Dog Adam from the Wood'
p732
sI732
S'De Garde Nectarine Premiere'
p733
sI733
S'Hair of the Dog Fred from the Wood'
p734
sI734
S'De Garde Imperial Purple Raz Bu'
p735
sI735
S'De Garde The Peach'
p736
sI736
S'Hair of the Dog Adam'
p737
sI737
S'Deschutes The Abyss'
p738
sI738
S'Prairie ?\xdb?Merica'
p739
sI739
S'Prairie Funky Gold Amarillo'
p740
sI740
S'Prairie Okie'
p741
sI741
S'Prairie Funky Gold Simcoe'
p742
sI742
S'Anthem Pappy Burleson'
p743
sI743
S'Roughtail Hoptometrist Double India Pale Ale'
p744
sI744
S'Prairie Wine Barrel Noir'
p745
sI745
S'Prairie Prairie Noir'
p746
sI746
S'Prairie Pirate Noir'
p747
sI747
S'Prairie Prairie Hop'
p748
sI748
S'Prairie Funky Gold Mosaic'
p749
sI749
S'Prairie Brett C.'
p750
sI750
S'American Solera Foeder Gold'
p751
sI751
S'Prairie Coffee Okie'
p752
sI752
S'Prairie Paradise'
p753
sI753
S'Prairie Bomb! - Balcones Barrel Aged'
p754
sI754
S'American Solera Foeder Cerise'
p755
sI755
S'Prairie Fred?\xdb?s Blend'
p756
sI756
S'Prairie / Evil Twin Bible Belt'
p757
sI757
S'Prairie Pirate Bomb!'
p758
sI758
S'Prairie Bomb! - Barrel Aged'
p759
sI759
S'Prairie Bomb!'
p760
sI760
S'Prairie Apple Brandy Barrel Noir'
p761
sI761
S'Hoppin?\xdb? Frog Rocky Mountain BORIS'
p762
sI762
S'Hoppin?\xdb? Frog TORIS The Tyrant: Triple Oatmeal Stout'
p763
sI763
S'Columbus Bodhi'
p764
sI764
S'Great Lakes Chillwave Double IPA'
p765
sI765
S'Jackie O?\xdb?s Bourbon Barrel Oil Of Aphrodite'
p766
sI766
S'Fat Head?\xdb?s Head Hunter IPA'
p767
sI767
S'Jackie O?\xdb?s Coffee Bourbon Barrel Oil Of Aphrodite'
p768
sI768
S'Hoppin?\xdb? Frog BORIS Batch #200'
p769
sI769
S'Warped Wing Baltic Argonaut'
p770
sI770
S'Jackie O?\xdb?s Bourbon Barrel Champion Ground'
p771
sI771
S'Jackie O?\xdb?s Bourbon Barrel Dark Apparition'
p772
sI772
S'Hoppin?\xdb? Frog Cafe BORIS'
p773
sI773
S'Fat Head?\xdb?s Hop JuJu Imperial IPA'
p774
sI774
S'Jackie O?\xdb?s Bourbon Barrel Oro Negro'
p775
sI775
S'Hoppin?\xdb? Frog Barrel Aged BORIS Royale'
p776
sI776
S'Hoppin?\xdb? Frog Barrel Aged BORIS Van Wink'
p777
sI777
S'Jackie O?\xdb?s Vanilla & Coffee Bean Bourbon Barrel Dark Apparition'
p778
sI778
S'Great Lakes Blackout Stout - Barrel-Aged '
p779
sI779
S'Jackie O?\xdb?s Iced Coffee Apparition'
p780
sI780
S'Thirsty Dog Siberian Night Imperial Stout'
p781
sI781
S'Hoppin?\xdb? Frog BORIS The Crusher'
p782
sI782
S'Hoppin?\xdb? Frog DORIS The Destroyer'
p783
sI783
S'Hoppin?\xdb? Frog Barrel Aged DORIS The Destroyer'
p784
sI784
S'Hoppin?\xdb? Frog Barrel Aged BORIS The Crusher '
p785
sI785
S'Fargo Super Green'
p786
sI786
S'Laughing Sun Cosmic Owl Belgian Pale Ale'
p787
sI787
S'Pointe of View Winery Dry Apple Wine'
p788
sI788
S'Pointe of View Winery H2BC'
p789
sI789
S'Fargo Original Pale Lager'
p790
sI790
S'Pointe of View Winery Semi-Dry Honey Wine'
p791
sI791
S'Maple River Winery Country Crabapple Wine'
p792
sI792
S'Pointe of View Winery Sweet Honey Wine '
p793
sI793
S'Fargo Stone?\xdb?s Throw Scottish Ale'
p794
sI794
S'Pointe of View Winery Honey Wine with Elderflowers'
p795
sI795
S'Maple River Winery Honey Apple Wine'
p796
sI796
S'Fargo Wind Swept Belgian Witbier'
p797
sI797
S'Laughing Sun Strawberry Wheat'
p798
sI798
S'Fargo Roustabout Stout'
p799
sI799
S'Fargo O?\xdb?Fest Oktoberfest Lager'
p800
sI800
S'Laughing Sun Sinister Pear'
p801
sI801
S'Pointe of View Winery Apple Wine'
p802
sI802
S'Fargo Wood Chipper IPA'
p803
sI803
S'Maple River Winery Honeycomb Plum'
p804
sI804
S'Laughing Sun Black Shox Porter'
p805
sI805
S'Fargo Sodbuster Porter'
p806
sI806
S'Pointe of View Winery Viking Deed'
p807
sI807
S'Laughing Sun Feast Like a Sultan IPA'
p808
sI808
S'Fargo Iron Horse Pale Ale'
p809
sI809
S'Wicked Weed Montmaretto (Canvas Series)'
p810
sI810
S'Foothills Seeing Double IPA'
p811
sI811
S'Highland Black Watch Double Chocolate Milk Stout'
p812
sI812
S'Wicked Weed Framboos Morte'
p813
sI813
S'Pisgah Valdez'
p814
sI814
S'Foothills Baltic Porter'
p815
sI815
S'NoDa Hop, Drop ?\xdb?n Roll IPA'
p816
sI816
S'Wicked Weed Angel of Darkness'
p817
sI817
S'Wicked Weed Pernicious IPA'
p818
sI818
S'Wicked Weed Bramble Barrel'
p819
sI819
S'Wicked Weed Ruffian Imperial Black IPA'
p820
sI820
S'Wicked Weed Freak Of Nature Double IPA'
p821
sI821
S'Wicked Weed M??nage-a-Freak'
p822
sI822
S'Wicked Weed Cherry Go Lightly'
p823
sI823
S'Wicked Weed Golden Angel'
p824
sI824
S'Wicked Weed Gar??on de Ferme'
p825
sI825
S'Wicked Weed Medora Blackberry Raspberry Sour'
p826
sI826
S'Foothills Barrel Aged Sexual Chocolate Imperial Stout'
p827
sI827
S'Wicked Weed Red Angel '
p828
sI828
S'Foothills Sexual Chocolate Imperial Stout'
p829
sI829
S'Foothills / Duck-Rabbit / Olde Hickory Olde Rabbit?\xdb?s Foot'
p830
sI830
S'The Duck-Rabbit Baltic Porter'
p831
sI831
S'Wicked Weed Dark Age Bourbon Stout'
p832
sI832
S'Olde Hickory The Event Horizon'
p833
sI833
S'Southern Tier Blackwater Series: Mokah'
p834
sI834
S'Evil Twin Auld Yin'
p835
sI835
S'Brooklyn Black Ops'
p836
sI836
S'Southern Tier Oaked Pumking'
p837
sI837
S'Other Half Double Mosaic Dream'
p838
sI838
S'Evil Twin Imperial Doughnut Break'
p839
sI839
S'Other Half Mosaic'
p840
sI840
S'Evil Twin Imperial Biscotti Break Raspberry Umami'
p841
sI841
S'Brooklyn Black Chocolate Stout'
p842
sI842
S'Southern Tier Imperial Oat'
p843
sI843
S'Captain Lawrence Rosso e Marrone'
p844
sI844
S'Evil Twin Even More Jesus Port'
p845
sI845
S'Evil Twin Imperial Biscotti Break - DeCicco Version'
p846
sI846
S'Evil Twin A??n M??s Caf?? Jes??s'
p847
sI847
S'Evil Twin A??n M??s a Jes??s'
p848
sI848
S'Captain Lawrence Cuvee de Castleton'
p849
sI849
S'Southern Tier Blackwater Series: Choklat'
p850
sI850
S'Evil Twin Imperial Biscotti Break'
p851
sI851
S'Evil Twin Even More Jesus'
p852
sI852
S'Evil Twin Pappy?\xdb?s Imperial Biscotti Break'
p853
sI853
S'Southampton Imperial Russian Stout'
p854
sI854
S'Evil Twin Imperial Biscotti Break - Bourbon Barrel'
p855
sI855
S'La Cumbre La Roja Grande'
p856
sI856
S'La Cumbre Father Nelson'
p857
sI857
S'Evil Twin Double Barrel Jesus'
p858
sI858
S'Evil Twin Pappy?\xdb?s Even More Jesus'
p859
sI859
S'Chama River Imperial Red'
p860
sI860
S'Santa Fe Barrel Aged Sour State Pen Porter'
p861
sI861
S'Marble Imperial Red Ale'
p862
sI862
S'Marble India Pale Ale'
p863
sI863
S'La Cumbre El Negro RIS'
p864
sI864
S'Santa Fe Los Innovadores Kriek'
p865
sI865
S'Marble D.I.P.A.'
p866
sI866
S'Marble Reserve Ale'
p867
sI867
S'Santa Fe Wild Ale #6 (Bordeaux Series)   '
p868
sI868
S'Chama River Dangerous Intensions'
p869
sI869
S'Santa Fe State Pen Imperial Porter'
p870
sI870
S'Chama River Anastasia Wine Barrel Aged Russian Imperial Stout'
p871
sI871
S'La Cumbre Red Ryeot'
p872
sI872
S'La Cumbre Acclimated IPA'
p873
sI873
S'Santa Fe Imperial Java Stout'
p874
sI874
S'Marble Imperial Stout'
p875
sI875
S'Marble Bourbon Barrel-Aged Imperial Stout'
p876
sI876
S'La Cumbre Cafe Con Leche'
p877
sI877
S'La Cumbre Malpais Stout'
p878
sI878
S'La Cumbre Project Dank'
p879
sI879
S'La Cumbre Elevated IPA'
p880
sI880
S'La Cumbre Full Nelson'
p881
sI881
S'Kane Silent Nights'
p882
sI882
S'Carton Epitome'
p883
sI883
S'Carton 077XX'
p884
sI884
S'Triumph Jewish Rye Beer'
p885
sI885
S'Triumph Imperial Stout'
p886
sI886
S'Kane Overhead'
p887
sI887
S'Flying Fish Exit 16 WE Wild Rice Double IPA'
p888
sI888
S'Triumph Coffee & Cream Stout'
p889
sI889
S'Harvest Moon Oceanus Procellarum'
p890
sI890
S'Melovino Southern Berry'
p891
sI891
S'Ramstein Eis Storm Eisbock'
p892
sI892
S'Carton Dune Fruit'
p893
sI893
S'Kane Hop Lab #9 - Citra Pale Ale'
p894
sI894
S'Kane A Night to End All Dawns - Coffee'
p895
sI895
S'Alba Vineyard Forbidden'
p896
sI896
S'Kane A Night to End All Dawns'
p897
sI897
S'Kane Mexican Brunch'
p898
sI898
S'Kane Head High'
p899
sI899
S'Triumph Rauchweizen'
p900
sI900
S'Carton Shipwreck Porter'
p901
sI901
S'Kane A Night to End All Dawns - Cacao'
p902
sI902
S'Kane Sunday Brunch'
p903
sI903
S'Kane A Night to End All Dawns - Vanilla Bean'
p904
sI904
S'Kane A Night To End All Dawns - Coconut'
p905
sI905
S'Stoneface Mozaccalypse'
p906
sI906
S'603 Granite Stout'
p907
sI907
S'Kelsen Vendel Imperial Stout'
p908
sI908
S'Deciduous Cumulation'
p909
sI909
S'Stoneface RIS - Bourbon Barrel Aged'
p910
sI910
S'Deciduous Lambent'
p911
sI911
S'Smuttynose Smuttlabs Shebang'
p912
sI912
S'Smuttynose Big Beer Series: Rocky Road Stout'
p913
sI913
S'Stoneface IPA'
p914
sI914
S'Stoneface RIS'
p915
sI915
S'White Birch Nyx'
p916
sI916
S'Deciduous Renascence'
p917
sI917
S'Stoneface Porter'
p918
sI918
S'Portsmouth Royal Impy Stout'
p919
sI919
S'Portsmouth Barleywine'
p920
sI920
S'Stoneface Hopulization'
p921
sI921
S'Smuttynose Big A IPA'
p922
sI922
S'Smuttynose Robust Porter'
p923
sI923
S'Moonlight Meadery Kurt?\xdb?s Apple Pie'
p924
sI924
S'Moonlight Meadery Destiny'
p925
sI925
S'Great Basin Hop Head Ale'
p926
sI926
S'Smuttynose Smuttlabs Apple Brandy Barrel Aged Gravitation'
p927
sI927
S'Smuttynose Smuttlabs Imperial Stout'
p928
sI928
S'Smuttynose Big Beer Series: Imperial Stout'
p929
sI929
S'Smuttynose Baltic Porter'
p930
sI930
S'Triple 7 Marker Pale Ale'
p931
sI931
S'Joseph James I?\xdb?m Out Imperial Stout'
p932
sI932
S'Silver Peak Peavine Porter'
p933
sI933
S'Joseph James 6th Anniversary Barrel-aged Rye Wine'
p934
sI934
S'Tenaya Creek Tandem Double India Pale Ale'
p935
sI935
S'Great Basin Outlaw Milk Stout'
p936
sI936
S'Chicago Hardway IPA'
p937
sI937
S'Big Dog?\xdb?s Dirty Dog IPA'
p938
sI938
S'Bad Beat Hoppy Times IPA'
p939
sI939
S'Tenaya Creek Hop Ride IPA'
p940
sI940
S'Big Dog?\xdb?s Sled Dog Imperial Stout'
p941
sI941
S'Tenaya Creek Monsoon Double IPA'
p942
sI942
S'Great Basin Scytale 385'
p943
sI943
S'Nebraska Inception Series Ardent Son'
p944
sI944
S'Nebraska Inception Series Franc Blanc'
p945
sI945
S'Tenaya Creek Red Ryder'
p946
sI946
S'Saint James Plum Lambic'
p947
sI947
S'Big Dog?\xdb?s War Dog Imperial IPA'
p948
sI948
S'Joseph James Citra Rye Pale Ale'
p949
sI949
S'Joseph James Barrel Smoker'
p950
sI950
S'Joseph James Baby J German Chocolate Cake Stout'
p951
sI951
S'Tenaya Creek Old Jackalope Barleywine'
p952
sI952
S'Saint James Daily Wages'
p953
sI953
S'Tenaya Creek Imperial Stout'
p954
sI954
S'Joseph James Bourbon Barrel-Aged Russian Imperial Stout'
p955
sI955
S'Brickway Vanilla Coffee Stout'
p956
sI956
S'Lucky Bucket IPA'
p957
sI957
S'Nebraska Inception Series #08 - Blanc is The New White'
p958
sI958
S'Nebraska Inception Series Tart?? Apricot Saison'
p959
sI959
S'Upstream Gianduja Imperial Rye Brown Ale'
p960
sI960
S'Lucky Bucket Barrel Aged Kriek'
p961
sI961
S'Nebraska Reserve Series Responsibly'
p962
sI962
S'Nebraska India Pale Ale (2011-  )'
p963
sI963
S'Jaipur Jalape??o Ale'
p964
sI964
S'Lucky Bucket Whiskey Barrel Aged Certified Evil'
p965
sI965
S'Thunderhead Espresso Stout'
p966
sI966
S'Nebraska HopAnomaly'
p967
sI967
S'Nebraska Inception Series Runnin?\xdb? with the Devil'
p968
sI968
S'Nebraska Little Betty Russian Imperial Stout'
p969
sI969
S'Nebraska Reserve Series Barrel Aged Fathead  '
p970
sI970
S'Nebraska Apricot Au Poivre Saison'
p971
sI971
S'Nebraska Reserve Series Melange A Trois '
p972
sI972
S'Upstream Grand Cru'
p973
sI973
S'Dempseys Longship Lager'
p974
sI974
S'Reaver Beach The Kracken'
p975
sI975
S'DC Brau For Others'
p976
sI976
S'Westbrook Mexican Cake Imperial Stout - Pappy Barrel'
p977
sI977
S'Westbrook 4th Anniversary - Bourbon Barrel Aged'
p978
sI978
S'Westbrook Mexican Cake Imperial Stout - Bourbon Barrel (2014)'
p979
sI979
S'Westbrook Mexican Cake Imperial Stout'
p980
sI980
S'Westbrook Mexican Cake Imperial Stout - Red Wine Barrel'
p981
sI981
S'Westbrook Leopold'
p982
sI982
S'Blackberry Farm Apricot Saison'
p983
sI983
S'Brash Vulgar Display of Power'
p984
sI984
S'Uinta Crooked Line Stompin\x89\xdb\xaa Grounds Coffee Stout'
p985
sI985
S'Hill Farmstead Works of Love (Sante Adairius - 2013)'
p986
sI986
S'Elysian Punkuccino Coffee Pumpkin Ale'
p987
sI987
S'Bridge Brew Works The Blunt'
p988
sI988
S'Tyranena BGW Dirty Old Man '
p989
sI989
S'Library Rattlesnake Rye Pale Ale'
p990
sI990
S'Melvin Brosaic'
p991
sI991
S'Altitude 7200 Stout'
p992
sI992
S'Melvin Killer Bees'
p993
sI993
S'Freedom\x89\xdb\xaas Edge High Noon Chili Pepper Ale'
p994
sI994
S'Black Tooth Indian Paintbrush Ale'
p995
sI995
S'Black Tooth Hot Streak IPA'
p996
sI996
S'Wind River Strom Bomb Oatmeal Stout'
p997
sI997
S'Bitter Creek A Beer Named Bob'
p998
sI998
S'Wind River Wyoming Pale Ale (WPA)'
p999
sI999
S'Black Tooth Saddle Bronc Brown'
p1000
sI1000
S'Melvin Clinic ISA'
p1001
sI1001
S'Altitude High Plains Pale Ale'
p1002
sI1002
S'Snake River Danimal\x89\xdb\xaas Farmhouse Saison'
p1003
sI1003
S'Snake River Pako\x89\xdb\xaas IPA'
p1004
sI1004
S'Melvin Drunken Master'
p1005
sI1005
S'Snake River Zonker Stout'
p1006
sI1006
S'Snake River Le Serpent Cerise'
p1007
sI1007
S'Brenner Witchcraft Imperial Stout'
p1008
sI1008
S'Snake River Le Serpent'
p1009
sI1009
S'Melvin Hubert MPA'
p1010
sI1010
S'Melvin IPA'
p1011
sI1011
S'Melvin Asterisk Double IPA'
p1012
sI1012
S'Melvin Shaolin Brew IPA'
p1013
sI1013
S'Melvin 2x4'
p1014
sI1014
S'Snake River Le Serpent Framboise'
p1015
sI1015
S'New Glarus Dancing Man Wheat'
p1016
sI1016
S'New Glarus Thumbprint Series Cran-bic Ale'
p1017
sI1017
S'New Glarus R & D Vintage 2014'
p1018
sI1018
S'Leinenkugels Big Eddy Russian Imperial Stout'
p1019
sI1019
S'New Glarus Thumbprint Series Wild Sour Ale'
p1020
sI1020
S'New Glarus Thumbprint Series Scream IIPA'
p1021
sI1021
S'Central Waters Brewer\x89\xdb\xaas Reserve Bourbon Barrel Scotch Ale'
p1022
sI1022
S'New Glarus Thumbprint Series IIPA'
p1023
sI1023
S'Central Waters Black Gold'
p1024
sI1024
S'Mountain Dragon Tulip Poplar Honey Mead'
p1025
sI1025
S'Central Waters 18 Anniversary Edition'
p1026
sI1026
S'Central Waters Brewer\x89\xdb\xaas Reserve Bourbon Barrel Barleywine'
p1027
sI1027
S'Central Waters Brewer\x89\xdb\xaas Reserve Bourbon Barrel Stout'
p1028
sI1028
S'Funk Factory Geuzeria / Oso Framrood'
p1029
sI1029
S'Tyranena BGW The Devil Made Me Do It'
p1030
sI1030
S'Tyranena BGW Whos Your Daddy? Bourbon Barrel-Aged Imperial Porter'
p1031
sI1031
S'Central Waters 17 Anniversary Edition'
p1032
sI1032
S'Tyranena BGW Devil Over A Barrel'
p1033
sI1033
S'New Glarus Raspberry Tart'
p1034
sI1034
S'New Glarus R & D Wild Peach'
p1035
sI1035
S'New Glarus Serendipity'
p1036
sI1036
S'Funk Factory Geuzeria / Oso Frampaars'
p1037
sI1037
S'New Glarus Wisconsin Belgian Red'
p1038
sI1038
S'Central Waters Ardea Insignis Imperial Stout'
p1039
sI1039
S'Bridge Brew Works Black Diamond Lager'
p1040
sI1040
S'Lost River Black Ale'
p1041
sI1041
S'Greenbrier Valley Wild & Wonderful Series #2: Hefeweizen'
p1042
sI1042
S'Healthberry Farm Honey River Tulip Poplar Mead'
p1043
sI1043
S'Morgantown First Shift Coffee Porter'
p1044
sI1044
S'Bridge Brew Works India Pale Ale'
p1045
sI1045
S'Morgantown Anderson\x89\xdb\xaas Kettle Bottom Brown Ale'
p1046
sI1046
S'Bridge Brew Works Trubell'
p1047
sI1047
S'Big Timber IPA'
p1048
sI1048
S'Morgantown Zack Morgan\x89\xdb\xaas IPA'
p1049
sI1049
S'Greenbrier Valley Wild Trail Pale Ale'
p1050
sI1050
S'Bridge Brew Works Momma Rye IPA'
p1051
sI1051
S'North End Dawks Classic Porter'
p1052
sI1052
S'Kenco Farms Blue Mead'
p1053
sI1053
S'Bridge Brew Works The Dun Glen Dubbel'
p1054
sI1054
S'Greenbrier Valley Mothman Black IPA'
p1055
sI1055
S'Greenbrier Valley Devil Anse IPA'
p1056
sI1056
S'Bridge Brew Works Hellbender IPA'
p1057
sI1057
S'Chestnut Brew Works Halleck Pale Ale'
p1058
sI1058
S'Bluejacket P.X. Sherry Barrel-Aged High Society 2016'
p1059
sI1059
S'Bluejacket Further'
p1060
sI1060
S'3 Stars Starsky and Dutch'
p1061
sI1061
S'Morgantown Coal City Stout'
p1062
sI1062
S'Bridge Brew Works Peregrine Porter'
p1063
sI1063
S'Bridge Brew Works Moxxee Coffee Stout'
p1064
sI1064
S'Big Timber Porter'
p1065
sI1065
S'Bluejacket Wary Fiend'
p1066
sI1066
S'Bluejacket Mexican Radio (Whiskey Barrel Aged)'
p1067
sI1067
S'Right Proper Kodachrome Dream(ing)'
p1068
sI1068
S'Bluejacket / Intangible Ales Travlr\x89\xdb\xaas 12k'
p1069
sI1069
S'Atlas Brew Works NSFW'
p1070
sI1070
S'Bluejacket Lost Weekend'
p1071
sI1071
S'DC Brau Alpha Domina Mellis'
p1072
sI1072
S'DC Brau Penn Quarter Porter'
p1073
sI1073
S'Bluejacket / Brooklyn / New Belgium Rheinard de Vos'
p1074
sI1074
S'Right Proper The Lubitsch Touch'
p1075
sI1075
S'Bluejacket Mexican Radio'
p1076
sI1076
S'Bluejacket / Intangible Ales Gene Turns 10k'
p1077
sI1077
S'Bluejacket Wallflower'
p1078
sI1078
S'Bluejacket A Little Golden Gem'
p1079
sI1079
S'Right Proper Kick.Kick.Snare'
p1080
sI1080
S'DC Brau / Oskar Blues Smells Like Freedom'
p1081
sI1081
S'James E. Pepper 1776 American Brown Ale '
p1082
sI1082
S'Right Proper Diamonds, Fur Coat, Champagne'
p1083
sI1083
S'DC Brau Solar Abyss'
p1084
sI1084
S'DC Brau On the Wings of Armageddon'
p1085
sI1085
S'Elysian The Fix'
p1086
sI1086
S'Urban Family Lady of the Night'
p1087
sI1087
S'Holy Mountain Midnight Still - Cherry Rye'
p1088
sI1088
S'Pike XXXXX Stout'
p1089
sI1089
S'Elysian Dragonstooth Stout'
p1090
sI1090
S'Boundary Bay Imperial IPA'
p1091
sI1091
S'Old Schoolhouse Imperial Stout'
p1092
sI1092
S'Black Raven Grandfather Raven Imperial Stout'
p1093
sI1093
S'Fish Tale 10\xe5_ Anniversary Ale'
p1094
sI1094
S'Silver City Le Fat'
p1095
sI1095
S'Alpenfire smoke'
p1096
sI1096
S'Holy Mountain Mis\xcc\xacre au Borinage'
p1097
sI1097
S'LaConner Olde Curmudgeon'
p1098
sI1098
S'Fremont Cowiche Canyon - Citra & Simcoe (Fresh Hop)'
p1099
sI1099
S'Black Raven Wisdom Seeker Double IPA'
p1100
sI1100
S'Holy Mountain Midnight Still - Coffee Vanilla'
p1101
sI1101
S'Fremont Dark Star - Bourbon Barrel Spice Wars'
p1102
sI1102
S'Fremont Abominable - Bourbon Barrel '
p1103
sI1103
S'Walking Man Jaywalker Russian Imperial Stout'
p1104
sI1104
S'Fremont Dark Star - Bourbon Barrel Coffee Edition'
p1105
sI1105
S'Fremont Dark Star - Bourbon Barrel'
p1106
sI1106
S'Fremont Rusty Nail'
p1107
sI1107
S'Fremont Brew 1000'
p1108
sI1108
S'Fremont Abominable - Bourbon Barrel Coffee Cinnamon'
p1109
sI1109
S'Lickinghole Creek Heir Apparent'
p1110
sI1110
S'Mad Fox Batch 100 Strong Black Ale'
p1111
sI1111
S'Lickinghole Creek Coconut Quadrupel Ale'
p1112
sI1112
S'Lickinghole Creek Great Commander'
p1113
sI1113
S'The Veil Master Master Shredder Shredder'
p1114
sI1114
S'Legend Imperial IPA'
p1115
sI1115
S'The Veil Crucial Taunt Double IPA'
p1116
sI1116
S'Devils Backbone / Wicked Weed Seven Summits'
p1117
sI1117
S'Hardywood Bourbon Barrel Raspberry Stout With Vanilla Beans'
p1118
sI1118
S'Hardywood Gingerbread Stout'
p1119
sI1119
S'Hardywood Bourbon GBS (Gingerbread Stout)'
p1120
sI1120
S'Hardywood Apple Brandy Barrel GBS (Gingerbread Stout)'
p1121
sI1121
S'Sweetwater Tavern Barrel Aged High Desert Imperial Stout'
p1122
sI1122
S'AleWerks Brewmasters Reserve Bourbon Barrel Porter'
p1123
sI1123
S'Lickinghole Creek Supreme Leader'
p1124
sI1124
S'Hardywood Trickery'
p1125
sI1125
S'Three Notch\x89\xdb\xaad Biggie S\x89\xdb\xaamores Imperial Stout '
p1126
sI1126
S'AleWerks Secret Admirer'
p1127
sI1127
S'Sweetwater Tavern High Desert Imperial Stout'
p1128
sI1128
S'Hardywood Christmas Morning'
p1129
sI1129
S'Hardywood Kentucky Christmas Morning'
p1130
sI1130
S'AleWerks Cafe Royale'
p1131
sI1131
S'Hardywood Foolery'
p1132
sI1132
S'AleWerks Bitter Valentine'
p1133
sI1133
S'Hill Farmstead What Is Enlightenment?'
p1134
sI1134
S'Hill Farmstead Society & Solitude #4'
p1135
sI1135
S'Hill Farmstead Society & Solitude #3'
p1136
sI1136
S'Hill Farmstead Flora - Plum'
p1137
sI1137
S'Hill Farmstead Citra Single Hop Pale Ale'
p1138
sI1138
S'Grassroots Legitimacy'
p1139
sI1139
S'Hill Farmstead Susan'
p1140
sI1140
S'Hill Farmstead Society & Solitude #2'
p1141
sI1141
S'Hill Farmstead Dorothy - Wine Barrel Aged'
p1142
sI1142
S'Lawson\x89\xdb\xaas Finest Double Sunshine IPA'
p1143
sI1143
S'Hill Farmstead Society & Solitude #6'
p1144
sI1144
S'Hill Farmstead Genealogy of Morals - Bourbon'
p1145
sI1145
S'Hill Farmstead Everett'
p1146
sI1146
S'Hill Farmstead Double Galaxy'
p1147
sI1147
S'Hill Farmstead Double Citra'
p1148
sI1148
S'Hill Farmstead Society & Solitude #5'
p1149
sI1149
S'Hill Farmstead Juicy'
p1150
sI1150
S'Hill Farmstead Ephraim'
p1151
sI1151
S'Hill Farmstead Damon'
p1152
sI1152
S'Hill Farmstead Abner'
p1153
sI1153
S'Alchemist Heady Topper'
p1154
sI1154
S'Hill Farmstead Ann'
p1155
sI1155
S'Epic / DC Brau Brainless: Corruption'
p1156
sI1156
S'Epic Smoked & Oaked Belgian-Style Ale'
p1157
sI1157
S'Epic Imperial Red Ale'
p1158
sI1158
S'Epic Double Barrel Big Bad Baptist'
p1159
sI1159
S'Hoppers Summerset Saison'
p1160
sI1160
S'Epic Brainless IPA'
p1161
sI1161
S'Uinta Crooked Line Oak Jacked Imperial Pumpkin'
p1162
sI1162
S'Epic Hopulent IPA'
p1163
sI1163
S'Red Rock Paardebloem '
p1164
sI1164
S'Epic Imperial IPA'
p1165
sI1165
S'Epic / Crooked Stave Elder Brett Saison-Brett Golden Ale'
p1166
sI1166
S'Epic Imperial Stout'
p1167
sI1167
S'Uinta Crooked Line Cockeyed Cooper '
p1168
sI1168
S'Epic Old Sage Brett'
p1169
sI1169
S'Epic Sour Brainless on Peaches'
p1170
sI1170
S'Squatters 529'
p1171
sI1171
S'Epic Son of a Baptist'
p1172
sI1172
S'Uinta Dubhe Imperial Black IPA'
p1173
sI1173
S'Uinta Crooked Line Sea Legs Baltic Porter'
p1174
sI1174
S'Squatters Outer Darkness'
p1175
sI1175
S'Jester King Nocturn Chrysalis - Gin Barrel Aged'
p1176
sI1176
S'Uinta Crooked Line Labyrinth Black Ale'
p1177
sI1177
S'Squatters Fifth Element'
p1178
sI1178
S'Epic Big Bad Baptist '
p1179
sI1179
S'Epic Big Bad Baptista'
p1180
sI1180
S'(512) Cascabel Cream Stout'
p1181
sI1181
S'Austin Beerworks Heavy Machinery IPA Series #2: Double IPA'
p1182
sI1182
S'Freetail Raspberry Ananke'
p1183
sI1183
S'Real Ale The Kraken'
p1184
sI1184
S'Jester King / Mikkeller Whiskey Barrel Rodeo'
p1185
sI1185
S'Brash Biggie Smalls Imperial Brown Ale '
p1186
sI1186
S'Jester King Nocturn Chrysalis (Batch 2+)'
p1187
sI1187
S'Lakewood Bourbon Barrel Temptress (BBT)'
p1188
sI1188
S'Saint Arnold Bishop\x89\xdb\xaas Barrel #8'
p1189
sI1189
S'Jester King / Mikkeller Weasel Rodeo'
p1190
sI1190
S'Jester King Aurelian Lure'
p1191
sI1191
S'Brash Cortado'
p1192
sI1192
S'Jester King Bi\xcc\xacre de Syrah'
p1193
sI1193
S'Jester King \x8c\xf6\xa0 \xbe\xc1\xc4 (F\x80\xd2n t\xcc\xc1o)'
p1194
sI1194
S'Jester King Bi\xcc\xacre de Blanc du Bois'
p1195
sI1195
S'Saint Arnold Divine Reserve #15'
p1196
sI1196
S'Karbach 003 Bourbon Barrel Hellfighter'
p1197
sI1197
S'Lakewood French Quarter Temptress'
p1198
sI1198
S'Saint Arnold Bishop\x89\xdb\xaas Barrel #1'
p1199
sI1199
S'Community Barrel Aged Legion'
p1200
sI1200
S'Jester King Montmorency vs. Balaton'
p1201
sI1201
S'Jester King Atrial Rubicite'
p1202
sI1202
S'Jester King Sherry Barrel Atrial Rubicite'
p1203
sI1203
S'Terminal BrewHouse Magnum PA'
p1204
sI1204
S'Blackberry Farm Spring Saison'
p1205
sI1205
S'Yazoo Sly Rye Porter'
p1206
sI1206
S'Turtle Anarchy Another Way to Rye'
p1207
sI1207
S'Terminal BrewHouse The White Shadow'
p1208
sI1208
S'Yazoo / New Belgium Embrace The Funk Series: Rufus'
p1209
sI1209
S'Wiseacre Adjective Animal'
p1210
sI1210
S'Blackberry Farm Barrel Series - Brett Saison'
p1211
sI1211
S'Terminal BrewHouse Southsidenstein Stout'
p1212
sI1212
S'Blackberry Farm Blackberry Rye'
p1213
sI1213
S'Boscos HopGod Ale'
p1214
sI1214
S'Blackstone Adam Bomb IPA'
p1215
sI1215
S'Blackberry Farm New World Cuvee Dry Hop Saison (2016)'
p1216
sI1216
S'Yazoo Fortuitous'
p1217
sI1217
S'Yazoo Embrace The Funk Series: Citra Luxe'
p1218
sI1218
S'Blackberry Farm Brett Saison'
p1219
sI1219
S'Wiseacre Gotta Get Up to Get Down Coffee Milk Stout'
p1220
sI1220
S'Yazoo Embrace the Funk Series: Deux Rouges'
p1221
sI1221
S'Blackberry Farm / Evil Twin From Tennessee With Smoke'
p1222
sI1222
S'Blackberry Farm Classic Saison'
p1223
sI1223
S'Yazoo SUE'
p1224
sI1224
S'Blackberry Farm Summer Saison'
p1225
sI1225
S'Dempseys Valkyrie Red'
p1226
sI1226
S'Crow Peak Easy Livin\x89\xdb\xaa Summer Ale'
p1227
sI1227
S'Crow Peak Redwater Ale'
p1228
sI1228
S'Crow Peak Roughlocktoberfest'
p1229
sI1229
S'Firehouse Honey Rye Porter'
p1230
sI1230
S'Firehouse Strong Arm Porter'
p1231
sI1231
S'Firehouse Prodigy Porter'
p1232
sI1232
S'Firehouse Brewers Golden'
p1233
sI1233
S'Wiseacre Astronaut Status'
p1234
sI1234
S'Sick N Twisted Hop On Top IPA'
p1235
sI1235
S'Firehouse Brown Cow Ale'
p1236
sI1236
S'Crow Peak Canyon Cream Ale'
p1237
sI1237
S'Firehouse Wilderness Wheat'
p1238
sI1238
S'Firehouse Buffalo Bitter'
p1239
sI1239
S'Firehouse Red'
p1240
sI1240
S'Crow Peak Eleventh Hour IPA'
p1241
sI1241
S'Fernson IPA'
p1242
sI1242
S'Fernson Farmhouse Ale'
p1243
sI1243
S'Firehouse Chukkar Ale'
p1244
sI1244
S'Crow Peak Bear Butte Brown Ale'
p1245
sI1245
S'Crow Peak Mjollnir'
p1246
sI1246
S'Sick N Twisted Panty Droppin\x89\xdb\xaa Porter'
p1247
sI1247
S'Firehouse Smoke Jumper Stout'
p1248
sI1248
S'Crow Peak Pile-O-Dirt Porter'
p1249
sI1249
S'Prairie Berry Raspberry Honeywine'
p1250
sI1250
S'Westbrook Anfernee - Whiskey Barrel Aged'
p1251
sI1251
S'Westbrook Shane\x89\xdb\xaas Big DIPA'
p1252
sI1252
S'Westbrook 5th Anniversary Chocolate Raspberry Imperial Stout'
p1253
sI1253
S'Westbrook 2nd Anniversary Cap\x89\xdb\xaan Skoon\x89\xdb\xaas Ballistic Stout'
p1254
sI1254
S'Westbrook / Evil Twin Mini Growler'
p1255
sI1255
S'COAST The Boy King Double IPA'
p1256
sI1256
S'Westbrook 4th Anniversary Chocolate Coconut Almond Imperial Stout'
p1257
sI1257
S'Humboldt Black Xantus'
p1258
sI1258
S'COAST Blackbeerd Imperial Stout - Bourbon Barrel'
p1259
sI1259
S'Westbrook Siberian Black Magic Panther - Bourbon Barrel'
p1260
sI1260
S'Westbrook 2nd Anniversary Cap\x89\xdb\xaan Skoon\x89\xdb\xaas Ballistic Stout - Bourbon Barrel'
p1261
sI1261
S'Westbrook Comrade Appleseed'
p1262
sI1262
S'COAST Blackbeerd Imperial Stout - Jack Daniels Barrel'
p1263
sI1263
S'Westbrook Siberian Black Magic Panther - Apple Brandy Barrel'
p1264
sI1264
S'Westbrook Mexican Cake Imperial Stout - Double Chocolate Bourbon Barrel'
p1265
sI1265
S'Westbrook Mexican Cake Imperial Stout - Coffee'
p1266
sI1266
S'Westbrook Mexican Cake Imperial Stout - Tequila Barrel'
p1267
sI1267
S'Westbrook Mexican Cake Imperial Stout - Bourbon Barrel (2015)'
p1268
sI1268
S'Westbrook Mexican Cake Imperial Stout - Bourbon Coconut '
p1269
s.