(dp0
I0
(lp1
F8.0
aF6.0
asI1
(lp2
F16.0
aF7.0
asI2
(lp3
F16.0
aF6.0
asI3
(lp4
F12.0
aF7.0
asI4
(lp5
F20.0
aF6.0
asI5
(lp6
F12.0
aF5.0
asI6
(lp7
F16.0
aF7.0
asI7
(lp8
F12.0
aF7.0
asI8
(lp9
F12.0
aF8.0
asI9
(lp10
F20.0
aF10.0
asI10
(lp11
F4.0
aF3.0
asI11
(lp12
F16.0
aF9.0
asI12
(lp13
F16.0
aF8.0
asI13
(lp14
F16.0
aF9.0
asI14
(lp15
F20.0
aF8.0
asI15
(lp16
F16.0
aF8.0
asI16
(lp17
F20.0
aF8.0
asI17
(lp18
F20.0
aF10.0
asI18
(lp19
F20.0
aF10.0
asI19
(lp20
F20.0
aF9.0
asI20
(lp21
F16.0
aF9.0
asI21
(lp22
F16.0
aF9.0
asI22
(lp23
F16.0
aF8.0
asI23
(lp24
F20.0
aF7.0
asI24
(lp25
F16.0
aF8.0
asI25
(lp26
F16.0
aF8.0
asI26
(lp27
F16.0
aF9.0
asI27
(lp28
F16.0
aF8.0
asI28
(lp29
F16.0
aF8.0
asI29
(lp30
F16.0
aF8.0
asI30
(lp31
F16.0
aF8.0
asI31
(lp32
F12.0
aF9.0
asI32
(lp33
F12.0
aF9.0
asI33
(lp34
F16.0
aF9.0
asI34
(lp35
F16.0
aF8.0
asI35
(lp36
F12.0
aF7.0
asI36
(lp37
F16.0
aF7.0
asI37
(lp38
F16.0
aF8.0
asI38
(lp39
F16.0
aF7.0
asI39
(lp40
F16.0
aF8.0
asI40
(lp41
F16.0
aF8.0
asI41
(lp42
F16.0
aF7.0
asI42
(lp43
F16.0
aF7.0
asI43
(lp44
F12.0
aF8.0
asI44
(lp45
F12.0
aF6.0
asI45
(lp46
F16.0
aF9.0
asI46
(lp47
F16.0
aF8.0
asI47
(lp48
F12.0
aF6.0
asI48
(lp49
F12.0
aF4.0
asI49
(lp50
F16.0
aF9.0
asI50
(lp51
F16.0
aF7.0
asI51
(lp52
F12.0
aF6.0
asI52
(lp53
F12.0
aF7.0
asI53
(lp54
F12.0
aF7.0
asI54
(lp55
F16.0
aF9.0
asI55
(lp56
F12.0
aF7.0
asI56
(lp57
F16.0
aF9.0
asI57
(lp58
F12.0
aF9.0
asI58
(lp59
F16.0
aF8.0
asI59
(lp60
F12.0
aF5.0
asI60
(lp61
F16.0
aF8.0
asI61
(lp62
F12.0
aF6.0
asI62
(lp63
F16.0
aF8.0
asI63
(lp64
F20.0
aF10.0
asI64
(lp65
F16.0
aF8.0
asI65
(lp66
F16.0
aF8.0
asI66
(lp67
F16.0
aF8.0
asI67
(lp68
F16.0
aF8.0
asI68
(lp69
F12.0
aF9.0
asI69
(lp70
F20.0
aF8.0
asI70
(lp71
F20.0
aF8.0
asI71
(lp72
F16.0
aF10.0
asI72
(lp73
F12.0
aF6.0
asI73
(lp74
F16.0
aF7.0
asI74
(lp75
F16.0
aF8.0
asI75
(lp76
F16.0
aF8.0
asI76
(lp77
F16.0
aF9.0
asI77
(lp78
F12.0
aF7.0
asI78
(lp79
F20.0
aF9.0
asI79
(lp80
F16.0
aF6.0
asI80
(lp81
F12.0
aF8.0
asI81
(lp82
F16.0
aF8.0
asI82
(lp83
F16.0
aF8.0
asI83
(lp84
F16.0
aF8.0
asI84
(lp85
F20.0
aF8.0
asI85
(lp86
F12.0
aF7.0
asI86
(lp87
F16.0
aF9.0
asI87
(lp88
F16.0
aF8.0
asI88
(lp89
F20.0
aF9.0
asI89
(lp90
F16.0
aF8.0
asI90
(lp91
F16.0
aF8.0
asI91
(lp92
F16.0
aF9.0
asI92
(lp93
F20.0
aF9.0
asI93
(lp94
F16.0
aF9.0
asI94
(lp95
F16.0
aF8.0
asI95
(lp96
F20.0
aF8.0
asI96
(lp97
F16.0
aF9.0
asI97
(lp98
F12.0
aF6.0
asI98
(lp99
F12.0
aF6.0
asI99
(lp100
F16.0
aF8.0
asI100
(lp101
F16.0
aF8.0
asI101
(lp102
F12.0
aF6.0
asI102
(lp103
F16.0
aF8.0
asI103
(lp104
F12.0
aF6.0
asI104
(lp105
F16.0
aF8.0
asI105
(lp106
F12.0
aF6.0
asI106
(lp107
F12.0
aF6.0
asI107
(lp108
F16.0
aF8.0
asI108
(lp109
F16.0
aF8.0
asI109
(lp110
F12.0
aF7.0
asI110
(lp111
F16.0
aF8.0
asI111
(lp112
F16.0
aF7.0
asI112
(lp113
F12.0
aF6.0
asI113
(lp114
F12.0
aF7.0
asI114
(lp115
F16.0
aF7.0
asI115
(lp116
F16.0
aF7.0
asI116
(lp117
F16.0
aF8.0
asI117
(lp118
F16.0
aF9.0
asI118
(lp119
F16.0
aF8.0
asI119
(lp120
F16.0
aF10.0
asI120
(lp121
F16.0
aF8.0
asI121
(lp122
F16.0
aF8.0
asI122
(lp123
F16.0
aF8.0
asI123
(lp124
F16.0
aF8.0
asI124
(lp125
F16.0
aF9.0
asI125
(lp126
F16.0
aF8.0
asI126
(lp127
F20.0
aF9.0
asI127
(lp128
F12.0
aF7.0
asI128
(lp129
F8.0
aF6.0
asI129
(lp130
F16.0
aF8.0
asI130
(lp131
F16.0
aF7.0
asI131
(lp132
F16.0
aF9.0
asI132
(lp133
F16.0
aF9.0
asI133
(lp134
F12.0
aF7.0
asI134
(lp135
F12.0
aF9.0
asI135
(lp136
F20.0
aF9.0
asI136
(lp137
F12.0
aF6.0
asI137
(lp138
F16.0
aF6.0
asI138
(lp139
F16.0
aF7.0
asI139
(lp140
F20.0
aF7.0
asI140
(lp141
F16.0
aF9.0
asI141
(lp142
F16.0
aF8.0
asI142
(lp143
F16.0
aF8.0
asI143
(lp144
F16.0
aF7.0
asI144
(lp145
F16.0
aF8.0
asI145
(lp146
F20.0
aF7.0
asI146
(lp147
F12.0
aF7.0
asI147
(lp148
F12.0
aF7.0
asI148
(lp149
F16.0
aF8.0
asI149
(lp150
F16.0
aF8.0
asI150
(lp151
F16.0
aF8.0
asI151
(lp152
F16.0
aF7.0
asI152
(lp153
F16.0
aF9.0
asI153
(lp154
F20.0
aF8.0
asI154
(lp155
F20.0
aF9.0
asI155
(lp156
F12.0
aF8.0
asI156
(lp157
F16.0
aF7.0
asI157
(lp158
F16.0
aF9.0
asI158
(lp159
F20.0
aF9.0
asI159
(lp160
F20.0
aF10.0
asI160
(lp161
F16.0
aF7.0
asI161
(lp162
F16.0
aF9.0
asI162
(lp163
F16.0
aF8.0
asI163
(lp164
F16.0
aF8.0
asI164
(lp165
F20.0
aF8.0
asI165
(lp166
F12.0
aF7.0
asI166
(lp167
F16.0
aF8.0
asI167
(lp168
F16.0
aF7.0
asI168
(lp169
F16.0
aF8.0
asI169
(lp170
F16.0
aF8.0
asI170
(lp171
F20.0
aF9.0
asI171
(lp172
F16.0
aF8.0
asI172
(lp173
F20.0
aF10.0
asI173
(lp174
F20.0
aF9.0
asI174
(lp175
F20.0
aF10.0
asI175
(lp176
F16.0
aF8.0
asI176
(lp177
F4.0
aF2.0
asI177
(lp178
F4.0
aF9.0
asI178
(lp179
F12.0
aF7.0
asI179
(lp180
F16.0
aF8.0
asI180
(lp181
F16.0
aF8.0
asI181
(lp182
F8.0
aF3.0
asI182
(lp183
F20.0
aF8.0
asI183
(lp184
F20.0
aF9.0
asI184
(lp185
F20.0
aF9.0
asI185
(lp186
F16.0
aF9.0
asI186
(lp187
F20.0
aF8.0
asI187
(lp188
F16.0
aF8.0
asI188
(lp189
F16.0
aF9.0
asI189
(lp190
F16.0
aF7.0
asI190
(lp191
F12.0
aF8.0
asI191
(lp192
F16.0
aF7.0
asI192
(lp193
F16.0
aF8.0
asI193
(lp194
F12.0
aF7.0
asI194
(lp195
F16.0
aF9.0
asI195
(lp196
F16.0
aF7.0
asI196
(lp197
F16.0
aF9.0
asI197
(lp198
F20.0
aF8.0
asI198
(lp199
F20.0
aF8.0
asI199
(lp200
F16.0
aF7.0
asI200
(lp201
F20.0
aF9.0
asI201
(lp202
F12.0
aF7.0
asI202
(lp203
F12.0
aF8.0
asI203
(lp204
F12.0
aF8.0
asI204
(lp205
F16.0
aF7.0
asI205
(lp206
F16.0
aF7.0
asI206
(lp207
F16.0
aF8.0
asI207
(lp208
F4.0
aF8.0
asI208
(lp209
F16.0
aF9.0
asI209
(lp210
F16.0
aF7.0
asI210
(lp211
F16.0
aF9.0
asI211
(lp212
F16.0
aF8.0
asI212
(lp213
F16.0
aF7.0
asI213
(lp214
F20.0
aF10.0
asI214
(lp215
F20.0
aF5.0
asI215
(lp216
F16.0
aF8.0
asI216
(lp217
F12.0
aF8.0
asI217
(lp218
F16.0
aF8.0
asI218
(lp219
F20.0
aF8.0
asI219
(lp220
F12.0
aF7.0
asI220
(lp221
F16.0
aF9.0
asI221
(lp222
F16.0
aF7.0
asI222
(lp223
F20.0
aF10.0
asI223
(lp224
F20.0
aF10.0
asI224
(lp225
F16.0
aF9.0
asI225
(lp226
F20.0
aF10.0
asI226
(lp227
F12.0
aF7.0
asI227
(lp228
F20.0
aF8.0
asI228
(lp229
F16.0
aF7.0
asI229
(lp230
F16.0
aF8.0
asI230
(lp231
F12.0
aF8.0
asI231
(lp232
F16.0
aF7.0
asI232
(lp233
F12.0
aF8.0
asI233
(lp234
F12.0
aF8.0
asI234
(lp235
F16.0
aF8.0
asI235
(lp236
F16.0
aF8.0
asI236
(lp237
F16.0
aF8.0
asI237
(lp238
F16.0
aF9.0
asI238
(lp239
F20.0
aF8.0
asI239
(lp240
F16.0
aF9.0
asI240
(lp241
F16.0
aF6.0
asI241
(lp242
F16.0
aF9.0
asI242
(lp243
F16.0
aF7.0
asI243
(lp244
F16.0
aF8.0
asI244
(lp245
F20.0
aF8.0
asI245
(lp246
F16.0
aF8.0
asI246
(lp247
F12.0
aF6.0
asI247
(lp248
F20.0
aF9.0
asI248
(lp249
F12.0
aF8.0
asI249
(lp250
F20.0
aF9.0
asI250
(lp251
F12.0
aF7.0
asI251
(lp252
F16.0
aF8.0
asI252
(lp253
F16.0
aF7.0
asI253
(lp254
F16.0
aF8.0
asI254
(lp255
F16.0
aF8.0
asI255
(lp256
F16.0
aF8.0
asI256
(lp257
F16.0
aF8.0
asI257
(lp258
F20.0
aF6.0
asI258
(lp259
F16.0
aF7.0
asI259
(lp260
F20.0
aF8.0
asI260
(lp261
F16.0
aF8.0
asI261
(lp262
F16.0
aF7.0
asI262
(lp263
F16.0
aF8.0
asI263
(lp264
F16.0
aF7.0
asI264
(lp265
F12.0
aF7.0
asI265
(lp266
F16.0
aF8.0
asI266
(lp267
F12.0
aF9.0
asI267
(lp268
F20.0
aF9.0
asI268
(lp269
F20.0
aF8.0
asI269
(lp270
F16.0
aF8.0
asI270
(lp271
F16.0
aF7.0
asI271
(lp272
F16.0
aF10.0
asI272
(lp273
F16.0
aF7.0
asI273
(lp274
F20.0
aF10.0
asI274
(lp275
F16.0
aF7.0
asI275
(lp276
F16.0
aF8.0
asI276
(lp277
F16.0
aF8.0
asI277
(lp278
F20.0
aF8.0
asI278
(lp279
F16.0
aF9.0
asI279
(lp280
F16.0
aF8.0
asI280
(lp281
F12.0
aF7.0
asI281
(lp282
F16.0
aF6.0
asI282
(lp283
F12.0
aF8.0
asI283
(lp284
F20.0
aF8.0
asI284
(lp285
F12.0
aF5.0
asI285
(lp286
F16.0
aF8.0
asI286
(lp287
F16.0
aF8.0
asI287
(lp288
F20.0
aF10.0
asI288
(lp289
F16.0
aF9.0
asI289
(lp290
F12.0
aF7.0
asI290
(lp291
F16.0
aF8.0
asI291
(lp292
F20.0
aF8.0
asI292
(lp293
F20.0
aF10.0
asI293
(lp294
F12.0
aF8.0
asI294
(lp295
F12.0
aF7.0
asI295
(lp296
F16.0
aF8.0
asI296
(lp297
F20.0
aF9.0
asI297
(lp298
F20.0
aF8.0
asI298
(lp299
F12.0
aF8.0
asI299
(lp300
F16.0
aF8.0
asI300
(lp301
F12.0
aF6.0
asI301
(lp302
F16.0
aF8.0
asI302
(lp303
F16.0
aF9.0
asI303
(lp304
F12.0
aF7.0
asI304
(lp305
F12.0
aF7.0
asI305
(lp306
F12.0
aF9.0
asI306
(lp307
F16.0
aF8.0
asI307
(lp308
F16.0
aF8.0
asI308
(lp309
F16.0
aF7.0
asI309
(lp310
F12.0
aF7.0
asI310
(lp311
F16.0
aF8.0
asI311
(lp312
F16.0
aF8.0
asI312
(lp313
F16.0
aF8.0
asI313
(lp314
F16.0
aF9.0
asI314
(lp315
F20.0
aF8.0
asI315
(lp316
F16.0
aF7.0
asI316
(lp317
F16.0
aF9.0
asI317
(lp318
F20.0
aF9.0
asI318
(lp319
F20.0
aF10.0
asI319
(lp320
F16.0
aF8.0
asI320
(lp321
F12.0
aF8.0
asI321
(lp322
F20.0
aF9.0
asI322
(lp323
F16.0
aF7.0
asI323
(lp324
F12.0
aF8.0
asI324
(lp325
F16.0
aF7.0
asI325
(lp326
F12.0
aF7.0
asI326
(lp327
F16.0
aF9.0
asI327
(lp328
F16.0
aF8.0
asI328
(lp329
F16.0
aF8.0
asI329
(lp330
F12.0
aF6.0
asI330
(lp331
F20.0
aF8.0
asI331
(lp332
F20.0
aF8.0
asI332
(lp333
F16.0
aF7.0
asI333
(lp334
F16.0
aF8.0
asI334
(lp335
F16.0
aF4.0
asI335
(lp336
F16.0
aF9.0
asI336
(lp337
F16.0
aF8.0
asI337
(lp338
F20.0
aF10.0
asI338
(lp339
F16.0
aF8.0
asI339
(lp340
F16.0
aF9.0
asI340
(lp341
F12.0
aF8.0
asI341
(lp342
F16.0
aF7.0
asI342
(lp343
F16.0
aF8.0
asI343
(lp344
F20.0
aF10.0
asI344
(lp345
F16.0
aF10.0
asI345
(lp346
F16.0
aF7.0
asI346
(lp347
F12.0
aF7.0
asI347
(lp348
F8.0
aF6.0
asI348
(lp349
F12.0
aF6.0
asI349
(lp350
F16.0
aF7.0
asI350
(lp351
F16.0
aF8.0
asI351
(lp352
F16.0
aF8.0
asI352
(lp353
F16.0
aF7.0
asI353
(lp354
F16.0
aF8.0
asI354
(lp355
F16.0
aF8.0
asI355
(lp356
F16.0
aF8.0
asI356
(lp357
F16.0
aF9.0
asI357
(lp358
F12.0
aF7.0
asI358
(lp359
F12.0
aF7.0
asI359
(lp360
F8.0
aF5.0
asI360
(lp361
F12.0
aF7.0
asI361
(lp362
F16.0
aF7.0
asI362
(lp363
F16.0
aF8.0
asI363
(lp364
F16.0
aF9.0
asI364
(lp365
F12.0
aF8.0
asI365
(lp366
F12.0
aF6.0
asI366
(lp367
F12.0
aF7.0
asI367
(lp368
F16.0
aF7.0
asI368
(lp369
F16.0
aF8.0
asI369
(lp370
F16.0
aF7.0
asI370
(lp371
F12.0
aF7.0
asI371
(lp372
F16.0
aF8.0
asI372
(lp373
F16.0
aF8.0
asI373
(lp374
F16.0
aF8.0
asI374
(lp375
F20.0
aF7.0
asI375
(lp376
F12.0
aF8.0
asI376
(lp377
F8.0
aF8.0
asI377
(lp378
F16.0
aF7.0
asI378
(lp379
F20.0
aF10.0
asI379
(lp380
F16.0
aF8.0
asI380
(lp381
F16.0
aF8.0
asI381
(lp382
F16.0
aF7.0
asI382
(lp383
F20.0
aF9.0
asI383
(lp384
F16.0
aF7.0
asI384
(lp385
F16.0
aF8.0
asI385
(lp386
F16.0
aF7.0
asI386
(lp387
F20.0
aF10.0
asI387
(lp388
F20.0
aF8.0
asI388
(lp389
F20.0
aF8.0
asI389
(lp390
F16.0
aF9.0
asI390
(lp391
F16.0
aF7.0
asI391
(lp392
F12.0
aF8.0
asI392
(lp393
F16.0
aF8.0
asI393
(lp394
F12.0
aF8.0
asI394
(lp395
F20.0
aF7.0
asI395
(lp396
F12.0
aF7.0
asI396
(lp397
F16.0
aF7.0
asI397
(lp398
F12.0
aF8.0
asI398
(lp399
F16.0
aF8.0
asI399
(lp400
F16.0
aF9.0
asI400
(lp401
F16.0
aF9.0
asI401
(lp402
F16.0
aF10.0
asI402
(lp403
F16.0
aF8.0
asI403
(lp404
F12.0
aF7.0
asI404
(lp405
F16.0
aF7.0
asI405
(lp406
F12.0
aF7.0
asI406
(lp407
F20.0
aF10.0
asI407
(lp408
F16.0
aF9.0
asI408
(lp409
F16.0
aF8.0
asI409
(lp410
F20.0
aF10.0
asI410
(lp411
F16.0
aF8.0
asI411
(lp412
F20.0
aF7.0
asI412
(lp413
F16.0
aF7.0
asI413
(lp414
F20.0
aF10.0
asI414
(lp415
F16.0
aF8.0
asI415
(lp416
F16.0
aF9.0
asI416
(lp417
F16.0
aF9.0
asI417
(lp418
F20.0
aF10.0
asI418
(lp419
F12.0
aF6.0
asI419
(lp420
F12.0
aF8.0
asI420
(lp421
F16.0
aF7.0
asI421
(lp422
F12.0
aF9.0
asI422
(lp423
F16.0
aF9.0
asI423
(lp424
F12.0
aF7.0
asI424
(lp425
F16.0
aF8.0
asI425
(lp426
F16.0
aF9.0
asI426
(lp427
F16.0
aF8.0
asI427
(lp428
F16.0
aF8.0
asI428
(lp429
F16.0
aF8.0
asI429
(lp430
F16.0
aF8.0
asI430
(lp431
F12.0
aF6.0
asI431
(lp432
F12.0
aF6.0
asI432
(lp433
F20.0
aF8.0
asI433
(lp434
F16.0
aF9.0
asI434
(lp435
F12.0
aF7.0
asI435
(lp436
F16.0
aF10.0
asI436
(lp437
F12.0
aF6.0
asI437
(lp438
F16.0
aF8.0
asI438
(lp439
F20.0
aF9.0
asI439
(lp440
F16.0
aF8.0
asI440
(lp441
F16.0
aF8.0
asI441
(lp442
F12.0
aF7.0
asI442
(lp443
F16.0
aF7.0
asI443
(lp444
F16.0
aF6.0
asI444
(lp445
F20.0
aF7.0
asI445
(lp446
F16.0
aF8.0
asI446
(lp447
F16.0
aF8.0
asI447
(lp448
F16.0
aF8.0
asI448
(lp449
F16.0
aF8.0
asI449
(lp450
F16.0
aF7.0
asI450
(lp451
F16.0
aF8.0
asI451
(lp452
F16.0
aF7.0
asI452
(lp453
F16.0
aF8.0
asI453
(lp454
F20.0
aF9.0
asI454
(lp455
F16.0
aF7.0
asI455
(lp456
F12.0
aF7.0
asI456
(lp457
F12.0
aF8.0
asI457
(lp458
F16.0
aF8.0
asI458
(lp459
F16.0
aF8.0
asI459
(lp460
F16.0
aF7.0
asI460
(lp461
F16.0
aF8.0
asI461
(lp462
F12.0
aF7.0
asI462
(lp463
F20.0
aF9.0
asI463
(lp464
F12.0
aF8.0
asI464
(lp465
F16.0
aF8.0
asI465
(lp466
F20.0
aF9.0
asI466
(lp467
F16.0
aF8.0
asI467
(lp468
F20.0
aF8.0
asI468
(lp469
F16.0
aF9.0
asI469
(lp470
F16.0
aF8.0
asI470
(lp471
F16.0
aF8.0
asI471
(lp472
F12.0
aF8.0
asI472
(lp473
F16.0
aF9.0
asI473
(lp474
F16.0
aF9.0
asI474
(lp475
F12.0
aF8.0
asI475
(lp476
F16.0
aF8.0
asI476
(lp477
F12.0
aF7.0
asI477
(lp478
F16.0
aF5.0
asI478
(lp479
F16.0
aF10.0
asI479
(lp480
F12.0
aF4.0
asI480
(lp481
F16.0
aF8.0
asI481
(lp482
F20.0
aF9.0
asI482
(lp483
F16.0
aF7.0
asI483
(lp484
F16.0
aF8.0
asI484
(lp485
F12.0
aF6.0
asI485
(lp486
F20.0
aF8.0
asI486
(lp487
F16.0
aF9.0
asI487
(lp488
F16.0
aF8.0
asI488
(lp489
F20.0
aF8.0
asI489
(lp490
F20.0
aF8.0
asI490
(lp491
F16.0
aF10.0
asI491
(lp492
F12.0
aF8.0
asI492
(lp493
F16.0
aF8.0
asI493
(lp494
F16.0
aF9.0
asI494
(lp495
F16.0
aF8.0
asI495
(lp496
F16.0
aF8.0
asI496
(lp497
F16.0
aF9.0
asI497
(lp498
F16.0
aF9.0
asI498
(lp499
F16.0
aF8.0
asI499
(lp500
F16.0
aF9.0
asI500
(lp501
F16.0
aF6.0
asI501
(lp502
F16.0
aF7.0
asI502
(lp503
F16.0
aF9.0
asI503
(lp504
F16.0
aF7.0
asI504
(lp505
F16.0
aF7.0
asI505
(lp506
F16.0
aF8.0
asI506
(lp507
F12.0
aF7.0
asI507
(lp508
F20.0
aF8.0
asI508
(lp509
F20.0
aF7.0
asI509
(lp510
F16.0
aF8.0
asI510
(lp511
F16.0
aF8.0
asI511
(lp512
F16.0
aF7.0
asI512
(lp513
F16.0
aF8.0
asI513
(lp514
F12.0
aF9.0
asI514
(lp515
F16.0
aF9.0
asI515
(lp516
F20.0
aF9.0
asI516
(lp517
F16.0
aF9.0
asI517
(lp518
F16.0
aF8.0
asI518
(lp519
F16.0
aF8.0
asI519
(lp520
F16.0
aF9.0
asI520
(lp521
F16.0
aF8.0
asI521
(lp522
F12.0
aF8.0
asI522
(lp523
F16.0
aF8.0
asI523
(lp524
F12.0
aF8.0
asI524
(lp525
F16.0
aF9.0
asI525
(lp526
F20.0
aF9.0
asI526
(lp527
F20.0
aF10.0
asI527
(lp528
F20.0
aF8.0
asI528
(lp529
F20.0
aF7.0
asI529
(lp530
F12.0
aF8.0
asI530
(lp531
F16.0
aF10.0
asI531
(lp532
F16.0
aF9.0
asI532
(lp533
F16.0
aF10.0
asI533
(lp534
F16.0
aF8.0
asI534
(lp535
F20.0
aF9.0
asI535
(lp536
F16.0
aF8.0
asI536
(lp537
F16.0
aF7.0
asI537
(lp538
F12.0
aF8.0
asI538
(lp539
F16.0
aF10.0
asI539
(lp540
F16.0
aF8.0
asI540
(lp541
F16.0
aF8.0
asI541
(lp542
F16.0
aF8.0
asI542
(lp543
F12.0
aF7.0
asI543
(lp544
F12.0
aF7.0
asI544
(lp545
F16.0
aF8.0
asI545
(lp546
F12.0
aF7.0
asI546
(lp547
F16.0
aF7.0
asI547
(lp548
F16.0
aF8.0
asI548
(lp549
F16.0
aF9.0
asI549
(lp550
F16.0
aF8.0
asI550
(lp551
F20.0
aF10.0
asI551
(lp552
F20.0
aF10.0
asI552
(lp553
F20.0
aF10.0
asI553
(lp554
F16.0
aF8.0
asI554
(lp555
F16.0
aF10.0
asI555
(lp556
F16.0
aF9.0
asI556
(lp557
F8.0
aF4.0
asI557
(lp558
F16.0
aF8.0
asI558
(lp559
F16.0
aF8.0
asI559
(lp560
F12.0
aF7.0
asI560
(lp561
F16.0
aF8.0
asI561
(lp562
F16.0
aF7.0
asI562
(lp563
F12.0
aF7.0
asI563
(lp564
F20.0
aF8.0
asI564
(lp565
F16.0
aF8.0
asI565
(lp566
F16.0
aF5.0
asI566
(lp567
F20.0
aF9.0
asI567
(lp568
F16.0
aF8.0
asI568
(lp569
F20.0
aF8.0
asI569
(lp570
F16.0
aF8.0
asI570
(lp571
F16.0
aF8.0
asI571
(lp572
F16.0
aF8.0
asI572
(lp573
F16.0
aF9.0
asI573
(lp574
F16.0
aF7.0
asI574
(lp575
F12.0
aF9.0
asI575
(lp576
F16.0
aF8.0
asI576
(lp577
F20.0
aF10.0
asI577
(lp578
F16.0
aF7.0
asI578
(lp579
F12.0
aF8.0
asI579
(lp580
F16.0
aF8.0
asI580
(lp581
F20.0
aF8.0
asI581
(lp582
F16.0
aF8.0
asI582
(lp583
F16.0
aF9.0
asI583
(lp584
F20.0
aF9.0
asI584
(lp585
F16.0
aF8.0
asI585
(lp586
F16.0
aF9.0
asI586
(lp587
F12.0
aF7.0
asI587
(lp588
F16.0
aF7.0
asI588
(lp589
F12.0
aF7.0
asI589
(lp590
F16.0
aF7.0
asI590
(lp591
F12.0
aF8.0
asI591
(lp592
F16.0
aF9.0
asI592
(lp593
F16.0
aF7.0
asI593
(lp594
F16.0
aF10.0
asI594
(lp595
F16.0
aF8.0
asI595
(lp596
F16.0
aF8.0
asI596
(lp597
F20.0
aF7.0
asI597
(lp598
F16.0
aF7.0
asI598
(lp599
F16.0
aF8.0
asI599
(lp600
F16.0
aF8.0
asI600
(lp601
F12.0
aF7.0
asI601
(lp602
F16.0
aF9.0
asI602
(lp603
F16.0
aF8.0
asI603
(lp604
F12.0
aF7.0
asI604
(lp605
F16.0
aF8.0
asI605
(lp606
F16.0
aF7.0
asI606
(lp607
F16.0
aF7.0
asI607
(lp608
F16.0
aF8.0
asI608
(lp609
F16.0
aF8.0
asI609
(lp610
F20.0
aF10.0
asI610
(lp611
F12.0
aF8.0
asI611
(lp612
F16.0
aF7.0
asI612
(lp613
F8.0
aF6.0
asI613
(lp614
F16.0
aF8.0
asI614
(lp615
F16.0
aF9.0
asI615
(lp616
F16.0
aF8.0
asI616
(lp617
F20.0
aF10.0
asI617
(lp618
F16.0
aF7.0
asI618
(lp619
F20.0
aF10.0
asI619
(lp620
F16.0
aF7.0
asI620
(lp621
F20.0
aF10.0
asI621
(lp622
F16.0
aF8.0
asI622
(lp623
F16.0
aF9.0
asI623
(lp624
F16.0
aF7.0
asI624
(lp625
F12.0
aF8.0
asI625
(lp626
F16.0
aF7.0
asI626
(lp627
F16.0
aF8.0
asI627
(lp628
F12.0
aF8.0
asI628
(lp629
F16.0
aF8.0
asI629
(lp630
F12.0
aF7.0
asI630
(lp631
F12.0
aF7.0
asI631
(lp632
F16.0
aF7.0
asI632
(lp633
F20.0
aF8.0
asI633
(lp634
F20.0
aF8.0
asI634
(lp635
F20.0
aF8.0
asI635
(lp636
F16.0
aF8.0
asI636
(lp637
F20.0
aF8.0
asI637
(lp638
F16.0
aF9.0
asI638
(lp639
F16.0
aF8.0
asI639
(lp640
F16.0
aF7.0
asI640
(lp641
F16.0
aF9.0
asI641
(lp642
F16.0
aF9.0
asI642
(lp643
F12.0
aF7.0
asI643
(lp644
F12.0
aF7.0
asI644
(lp645
F20.0
aF9.0
asI645
(lp646
F16.0
aF8.0
asI646
(lp647
F16.0
aF8.0
asI647
(lp648
F12.0
aF6.0
asI648
(lp649
F20.0
aF9.0
asI649
(lp650
F16.0
aF9.0
asI650
(lp651
F16.0
aF8.0
asI651
(lp652
F16.0
aF8.0
asI652
(lp653
F8.0
aF6.0
asI653
(lp654
F12.0
aF7.0
asI654
(lp655
F16.0
aF9.0
asI655
(lp656
F16.0
aF8.0
asI656
(lp657
F16.0
aF7.0
asI657
(lp658
F16.0
aF8.0
asI658
(lp659
F16.0
aF7.0
asI659
(lp660
F16.0
aF9.0
asI660
(lp661
F16.0
aF8.0
asI661
(lp662
F12.0
aF7.0
asI662
(lp663
F16.0
aF7.0
asI663
(lp664
F12.0
aF7.0
asI664
(lp665
F12.0
aF8.0
asI665
(lp666
F16.0
aF10.0
asI666
(lp667
F20.0
aF8.0
asI667
(lp668
F16.0
aF8.0
asI668
(lp669
F12.0
aF8.0
asI669
(lp670
F16.0
aF9.0
asI670
(lp671
F12.0
aF8.0
asI671
(lp672
F20.0
aF8.0
asI672
(lp673
F12.0
aF8.0
asI673
(lp674
F16.0
aF8.0
asI674
(lp675
F16.0
aF8.0
asI675
(lp676
F16.0
aF9.0
asI676
(lp677
F16.0
aF7.0
asI677
(lp678
F12.0
aF4.0
asI678
(lp679
F16.0
aF7.0
asI679
(lp680
F12.0
aF7.0
asI680
(lp681
F16.0
aF9.0
asI681
(lp682
F16.0
aF8.0
asI682
(lp683
F12.0
aF9.0
asI683
(lp684
F16.0
aF8.0
asI684
(lp685
F16.0
aF8.0
asI685
(lp686
F16.0
aF8.0
asI686
(lp687
F16.0
aF8.0
asI687
(lp688
F16.0
aF8.0
asI688
(lp689
F16.0
aF9.0
asI689
(lp690
F16.0
aF9.0
asI690
(lp691
F16.0
aF8.0
asI691
(lp692
F16.0
aF9.0
asI692
(lp693
F12.0
aF7.0
asI693
(lp694
F16.0
aF8.0
asI694
(lp695
F12.0
aF7.0
asI695
(lp696
F16.0
aF8.0
asI696
(lp697
F16.0
aF7.0
asI697
(lp698
F16.0
aF8.0
asI698
(lp699
F20.0
aF9.0
asI699
(lp700
F16.0
aF6.0
asI700
(lp701
F20.0
aF8.0
asI701
(lp702
F16.0
aF9.0
asI702
(lp703
F20.0
aF9.0
asI703
(lp704
F16.0
aF9.0
asI704
(lp705
F12.0
aF8.0
asI705
(lp706
F12.0
aF8.0
asI706
(lp707
F16.0
aF8.0
asI707
(lp708
F12.0
aF8.0
asI708
(lp709
F20.0
aF8.0
asI709
(lp710
F12.0
aF8.0
asI710
(lp711
F16.0
aF9.0
asI711
(lp712
F16.0
aF8.0
asI712
(lp713
F12.0
aF7.0
asI713
(lp714
F16.0
aF9.0
asI714
(lp715
F20.0
aF7.0
asI715
(lp716
F12.0
aF7.0
asI716
(lp717
F20.0
aF8.0
asI717
(lp718
F8.0
aF8.0
asI718
(lp719
F8.0
aF6.0
asI719
(lp720
F12.0
aF8.0
asI720
(lp721
F16.0
aF8.0
asI721
(lp722
F12.0
aF8.0
asI722
(lp723
F20.0
aF10.0
asI723
(lp724
F16.0
aF8.0
asI724
(lp725
F16.0
aF7.0
asI725
(lp726
F16.0
aF9.0
asI726
(lp727
F16.0
aF9.0
asI727
(lp728
F12.0
aF8.0
asI728
(lp729
F16.0
aF10.0
asI729
(lp730
F12.0
aF7.0
asI730
(lp731
F16.0
aF7.0
asI731
(lp732
F16.0
aF8.0
asI732
(lp733
F16.0
aF9.0
asI733
(lp734
F12.0
aF7.0
asI734
(lp735
F12.0
aF8.0
asI735
(lp736
F16.0
aF8.0
asI736
(lp737
F20.0
aF10.0
asI737
(lp738
F16.0
aF8.0
asI738
(lp739
F12.0
aF7.0
asI739
(lp740
F16.0
aF8.0
asI740
(lp741
F16.0
aF7.0
asI741
(lp742
F16.0
aF8.0
asI742
(lp743
F16.0
aF7.0
asI743
(lp744
F16.0
aF7.0
asI744
(lp745
F16.0
aF7.0
asI745
(lp746
F16.0
aF9.0
asI746
(lp747
F16.0
aF6.0
asI747
(lp748
F16.0
aF8.0
asI748
(lp749
F20.0
aF9.0
asI749
(lp750
F12.0
aF7.0
asI750
(lp751
F12.0
aF8.0
asI751
(lp752
F16.0
aF8.0
asI752
(lp753
F12.0
aF5.0
asI753
(lp754
F16.0
aF8.0
asI754
(lp755
F16.0
aF8.0
asI755
(lp756
F16.0
aF8.0
asI756
(lp757
F12.0
aF8.0
asI757
(lp758
F16.0
aF8.0
asI758
(lp759
F20.0
aF8.0
asI759
(lp760
F20.0
aF8.0
asI760
(lp761
F16.0
aF10.0
asI761
(lp762
F16.0
aF8.0
asI762
(lp763
F20.0
aF9.0
asI763
(lp764
F16.0
aF8.0
asI764
(lp765
F20.0
aF7.0
asI765
(lp766
F16.0
aF7.0
asI766
(lp767
F16.0
aF8.0
asI767
(lp768
F16.0
aF7.0
asI768
(lp769
F20.0
aF9.0
asI769
(lp770
F20.0
aF9.0
asI770
(lp771
F20.0
aF10.0
asI771
(lp772
F16.0
aF10.0
asI772
(lp773
F16.0
aF8.0
asI773
(lp774
F16.0
aF9.0
asI774
(lp775
F16.0
aF9.0
asI775
(lp776
F16.0
aF8.0
asI776
(lp777
F20.0
aF8.0
asI777
(lp778
F16.0
aF7.0
asI778
(lp779
F16.0
aF9.0
asI779
(lp780
F16.0
aF8.0
asI780
(lp781
F12.0
aF7.0
asI781
(lp782
F16.0
aF8.0
asI782
(lp783
F12.0
aF7.0
asI783
(lp784
F12.0
aF6.0
asI784
(lp785
F16.0
aF8.0
asI785
(lp786
F16.0
aF9.0
asI786
(lp787
F12.0
aF7.0
asI787
(lp788
F20.0
aF9.0
asI788
(lp789
F16.0
aF8.0
asI789
(lp790
F16.0
aF7.0
asI790
(lp791
F16.0
aF8.0
asI791
(lp792
F16.0
aF7.0
asI792
(lp793
F12.0
aF5.0
asI793
(lp794
F12.0
aF8.0
asI794
(lp795
F16.0
aF10.0
asI795
(lp796
F16.0
aF8.0
asI796
(lp797
F16.0
aF7.0
asI797
(lp798
F16.0
aF8.0
asI798
(lp799
F16.0
aF9.0
asI799
(lp800
F20.0
aF10.0
asI800
(lp801
F16.0
aF8.0
asI801
(lp802
F16.0
aF10.0
asI802
(lp803
F16.0
aF8.0
asI803
(lp804
F12.0
aF7.0
asI804
(lp805
F16.0
aF8.0
asI805
(lp806
F16.0
aF8.0
asI806
(lp807
F16.0
aF8.0
asI807
(lp808
F16.0
aF8.0
asI808
(lp809
F16.0
aF8.0
asI809
(lp810
F16.0
aF7.0
asI810
(lp811
F16.0
aF8.0
asI811
(lp812
F16.0
aF8.0
asI812
(lp813
F20.0
aF9.0
asI813
(lp814
F20.0
aF10.0
asI814
(lp815
F16.0
aF7.0
asI815
(lp816
F16.0
aF7.0
asI816
(lp817
F16.0
aF7.0
asI817
(lp818
F16.0
aF8.0
asI818
(lp819
F20.0
aF10.0
asI819
(lp820
F16.0
aF7.0
asI820
(lp821
F16.0
aF7.0
asI821
(lp822
F16.0
aF8.0
asI822
(lp823
F12.0
aF7.0
asI823
(lp824
F16.0
aF10.0
asI824
(lp825
F20.0
aF8.0
asI825
(lp826
F16.0
aF8.0
asI826
(lp827
F16.0
aF9.0
asI827
(lp828
F16.0
aF9.0
asI828
(lp829
F16.0
aF8.0
asI829
(lp830
F16.0
aF9.0
asI830
(lp831
F16.0
aF7.0
asI831
(lp832
F20.0
aF9.0
asI832
(lp833
F20.0
aF8.0
asI833
(lp834
F16.0
aF9.0
asI834
(lp835
F16.0
aF8.0
asI835
(lp836
F20.0
aF8.0
asI836
(lp837
F12.0
aF7.0
asI837
(lp838
F16.0
aF8.0
asI838
(lp839
F16.0
aF7.0
asI839
(lp840
F20.0
aF9.0
asI840
(lp841
F16.0
aF9.0
asI841
(lp842
F16.0
aF9.0
asI842
(lp843
F16.0
aF9.0
asI843
(lp844
F20.0
aF10.0
asI844
(lp845
F20.0
aF8.0
asI845
(lp846
F16.0
aF9.0
asI846
(lp847
F12.0
aF9.0
asI847
(lp848
F20.0
aF8.0
asI848
(lp849
F16.0
aF7.0
asI849
(lp850
F16.0
aF9.0
asI850
(lp851
F16.0
aF9.0
asI851
(lp852
F16.0
aF8.0
asI852
(lp853
F16.0
aF8.0
asI853
(lp854
F16.0
aF8.0
asI854
(lp855
F20.0
aF10.0
asI855
(lp856
F16.0
aF8.0
asI856
(lp857
F16.0
aF8.0
asI857
(lp858
F16.0
aF9.0
asI858
(lp859
F12.0
aF8.0
asI859
(lp860
F16.0
aF7.0
asI860
(lp861
F12.0
aF8.0
asI861
(lp862
F16.0
aF8.0
asI862
(lp863
F12.0
aF7.0
asI863
(lp864
F16.0
aF7.0
asI864
(lp865
F16.0
aF7.0
asI865
(lp866
F16.0
aF8.0
asI866
(lp867
F16.0
aF8.0
asI867
(lp868
F16.0
aF10.0
asI868
(lp869
F20.0
aF10.0
asI869
(lp870
F16.0
aF8.0
asI870
(lp871
F16.0
aF8.0
asI871
(lp872
F16.0
aF8.0
asI872
(lp873
F12.0
aF7.0
asI873
(lp874
F12.0
aF8.0
asI874
(lp875
F12.0
aF7.0
asI875
(lp876
F16.0
aF8.0
asI876
(lp877
F16.0
aF8.0
asI877
(lp878
F16.0
aF9.0
asI878
(lp879
F16.0
aF8.0
asI879
(lp880
F16.0
aF6.0
asI880
(lp881
F16.0
aF9.0
asI881
(lp882
F16.0
aF7.0
asI882
(lp883
F20.0
aF10.0
asI883
(lp884
F12.0
aF7.0
asI884
(lp885
F16.0
aF8.0
asI885
(lp886
F16.0
aF8.0
asI886
(lp887
F16.0
aF8.0
asI887
(lp888
F20.0
aF10.0
asI888
(lp889
F20.0
aF8.0
asI889
(lp890
F16.0
aF7.0
asI890
(lp891
F20.0
aF9.0
asI891
(lp892
F16.0
aF8.0
asI892
(lp893
F12.0
aF8.0
asI893
(lp894
F16.0
aF9.0
asI894
(lp895
F16.0
aF7.0
asI895
(lp896
F16.0
aF8.0
asI896
(lp897
F16.0
aF8.0
asI897
(lp898
F16.0
aF10.0
asI898
(lp899
F16.0
aF7.0
asI899
(lp900
F20.0
aF10.0
asI900
(lp901
F20.0
aF9.0
asI901
(lp902
F16.0
aF9.0
asI902
(lp903
F16.0
aF8.0
asI903
(lp904
F20.0
aF10.0
asI904
(lp905
F16.0
aF10.0
asI905
(lp906
F16.0
aF8.0
asI906
(lp907
F20.0
aF9.0
asI907
(lp908
F16.0
aF8.0
asI908
(lp909
F16.0
aF8.0
asI909
(lp910
F16.0
aF9.0
asI910
(lp911
F12.0
aF10.0
asI911
(lp912
F16.0
aF9.0
asI912
(lp913
F16.0
aF7.0
asI913
(lp914
F16.0
aF9.0
asI914
(lp915
F16.0
aF8.0
asI915
(lp916
F16.0
aF9.0
asI916
(lp917
F16.0
aF7.0
asI917
(lp918
F16.0
aF9.0
asI918
(lp919
F16.0
aF8.0
asI919
(lp920
F16.0
aF9.0
asI920
(lp921
F8.0
aF6.0
asI921
(lp922
F16.0
aF9.0
asI922
(lp923
F16.0
aF8.0
asI923
(lp924
F16.0
aF7.0
asI924
(lp925
F16.0
aF9.0
asI925
(lp926
F20.0
aF8.0
asI926
(lp927
F16.0
aF9.0
asI927
(lp928
F12.0
aF8.0
asI928
(lp929
F16.0
aF8.0
asI929
(lp930
F16.0
aF8.0
asI930
(lp931
F16.0
aF8.0
asI931
(lp932
F16.0
aF10.0
asI932
(lp933
F20.0
aF7.0
asI933
(lp934
F16.0
aF7.0
asI934
(lp935
F12.0
aF9.0
asI935
(lp936
F12.0
aF7.0
asI936
(lp937
F12.0
aF8.0
asI937
(lp938
F16.0
aF7.0
asI938
(lp939
F20.0
aF8.0
asI939
(lp940
F16.0
aF7.0
asI940
(lp941
F20.0
aF10.0
asI941
(lp942
F12.0
aF5.0
asI942
(lp943
F20.0
aF8.0
asI943
(lp944
F16.0
aF8.0
asI944
(lp945
F16.0
aF8.0
asI945
(lp946
F16.0
aF9.0
asI946
(lp947
F12.0
aF8.0
asI947
(lp948
F16.0
aF7.0
asI948
(lp949
F20.0
aF10.0
asI949
(lp950
F16.0
aF9.0
asI950
(lp951
F16.0
aF7.0
asI951
(lp952
F12.0
aF8.0
asI952
(lp953
F12.0
aF8.0
asI953
(lp954
F20.0
aF10.0
asI954
(lp955
F16.0
aF9.0
asI955
(lp956
F16.0
aF8.0
asI956
(lp957
F12.0
aF6.0
asI957
(lp958
F16.0
aF8.0
asI958
(lp959
F16.0
aF8.0
asI959
(lp960
F16.0
aF10.0
asI960
(lp961
F16.0
aF8.0
asI961
(lp962
F16.0
aF8.0
asI962
(lp963
F16.0
aF7.0
asI963
(lp964
F16.0
aF8.0
asI964
(lp965
F20.0
aF9.0
asI965
(lp966
F16.0
aF7.0
asI966
(lp967
F12.0
aF9.0
asI967
(lp968
F12.0
aF9.0
asI968
(lp969
F16.0
aF10.0
asI969
(lp970
F16.0
aF8.0
asI970
(lp971
F16.0
aF7.0
asI971
(lp972
F12.0
aF6.0
asI972
(lp973
F16.0
aF8.0
asI973
(lp974
F16.0
aF9.0
asI974
(lp975
F16.0
aF7.0
asI975
(lp976
F16.0
aF9.0
asI976
(lp977
F20.0
aF8.0
asI977
(lp978
F16.0
aF9.0
asI978
(lp979
F20.0
aF10.0
asI979
(lp980
F16.0
aF9.0
asI980
(lp981
F16.0
aF9.0
asI981
(lp982
F16.0
aF8.0
asI982
(lp983
F16.0
aF7.0
asI983
(lp984
F16.0
aF9.0
asI984
(lp985
F16.0
aF8.0
asI985
(lp986
F16.0
aF8.0
asI986
(lp987
F16.0
aF7.0
asI987
(lp988
F16.0
aF8.0
asI988
(lp989
F20.0
aF8.0
asI989
(lp990
F16.0
aF8.0
asI990
(lp991
F16.0
aF9.0
asI991
(lp992
F20.0
aF9.0
asI992
(lp993
F16.0
aF8.0
asI993
(lp994
F16.0
aF9.0
asI994
(lp995
F20.0
aF8.0
asI995
(lp996
F20.0
aF9.0
asI996
(lp997
F12.0
aF6.0
asI997
(lp998
F16.0
aF8.0
asI998
(lp999
F12.0
aF8.0
asI999
(lp1000
F16.0
aF8.0
asI1000
(lp1001
F20.0
aF8.0
asI1001
(lp1002
F16.0
aF8.0
asI1002
(lp1003
F16.0
aF9.0
asI1003
(lp1004
F16.0
aF8.0
asI1004
(lp1005
F12.0
aF8.0
asI1005
(lp1006
F16.0
aF8.0
asI1006
(lp1007
F12.0
aF8.0
asI1007
(lp1008
F20.0
aF10.0
asI1008
(lp1009
F16.0
aF5.0
asI1009
(lp1010
F16.0
aF8.0
asI1010
(lp1011
F16.0
aF8.0
asI1011
(lp1012
F16.0
aF8.0
asI1012
(lp1013
F16.0
aF8.0
asI1013
(lp1014
F20.0
aF10.0
asI1014
(lp1015
F16.0
aF7.0
asI1015
(lp1016
F16.0
aF5.0
asI1016
(lp1017
F16.0
aF9.0
asI1017
(lp1018
F16.0
aF8.0
asI1018
(lp1019
F16.0
aF8.0
asI1019
(lp1020
F16.0
aF7.0
asI1020
(lp1021
F16.0
aF8.0
asI1021
(lp1022
F12.0
aF7.0
asI1022
(lp1023
F20.0
aF8.0
asI1023
(lp1024
F16.0
aF8.0
asI1024
(lp1025
F16.0
aF9.0
asI1025
(lp1026
F12.0
aF7.0
asI1026
(lp1027
F16.0
aF9.0
asI1027
(lp1028
F16.0
aF9.0
asI1028
(lp1029
F16.0
aF9.0
asI1029
(lp1030
F16.0
aF10.0
asI1030
(lp1031
F16.0
aF7.0
asI1031
(lp1032
F20.0
aF8.0
asI1032
(lp1033
F20.0
aF10.0
asI1033
(lp1034
F12.0
aF7.0
asI1034
(lp1035
F20.0
aF7.0
asI1035
(lp1036
F12.0
aF8.0
asI1036
(lp1037
F12.0
aF7.0
asI1037
(lp1038
F12.0
aF7.0
asI1038
(lp1039
F16.0
aF10.0
asI1039
(lp1040
F16.0
aF9.0
asI1040
(lp1041
F16.0
aF9.0
asI1041
(lp1042
F16.0
aF10.0
asI1042
(lp1043
F20.0
aF10.0
asI1043
(lp1044
F20.0
aF10.0
asI1044
(lp1045
F16.0
aF10.0
asI1045
(lp1046
F20.0
aF9.0
asI1046
(lp1047
F16.0
aF7.0
asI1047
(lp1048
F16.0
aF6.0
asI1048
(lp1049
F16.0
aF7.0
asI1049
(lp1050
F16.0
aF10.0
asI1050
(lp1051
F12.0
aF6.0
asI1051
(lp1052
F16.0
aF8.0
asI1052
(lp1053
F16.0
aF7.0
asI1053
(lp1054
F16.0
aF9.0
asI1054
(lp1055
F16.0
aF9.0
asI1055
(lp1056
F16.0
aF8.0
asI1056
(lp1057
F16.0
aF8.0
asI1057
(lp1058
F16.0
aF8.0
asI1058
(lp1059
F16.0
aF8.0
asI1059
(lp1060
F20.0
aF10.0
asI1060
(lp1061
F16.0
aF8.0
asI1061
(lp1062
F16.0
aF8.0
asI1062
(lp1063
F12.0
aF9.0
asI1063
(lp1064
F16.0
aF8.0
asI1064
(lp1065
F12.0
aF7.0
asI1065
(lp1066
F16.0
aF8.0
asI1066
(lp1067
F16.0
aF8.0
asI1067
(lp1068
F16.0
aF8.0
asI1068
(lp1069
F20.0
aF9.0
asI1069
(lp1070
F16.0
aF10.0
asI1070
(lp1071
F12.0
aF8.0
asI1071
(lp1072
F8.0
aF7.0
asI1072
(lp1073
F16.0
aF7.0
asI1073
(lp1074
F16.0
aF7.0
asI1074
(lp1075
F20.0
aF8.0
asI1075
(lp1076
F16.0
aF8.0
asI1076
(lp1077
F16.0
aF8.0
asI1077
(lp1078
F16.0
aF8.0
asI1078
(lp1079
F16.0
aF10.0
asI1079
(lp1080
F20.0
aF8.0
asI1080
(lp1081
F16.0
aF8.0
asI1081
(lp1082
F16.0
aF8.0
asI1082
(lp1083
F16.0
aF8.0
asI1083
(lp1084
F16.0
aF6.0
asI1084
(lp1085
F16.0
aF7.0
asI1085
(lp1086
F12.0
aF8.0
asI1086
(lp1087
F12.0
aF8.0
asI1087
(lp1088
F16.0
aF8.0
asI1088
(lp1089
F16.0
aF9.0
asI1089
(lp1090
F16.0
aF8.0
asI1090
(lp1091
F16.0
aF8.0
asI1091
(lp1092
F16.0
aF9.0
asI1092
(lp1093
F16.0
aF8.0
asI1093
(lp1094
F16.0
aF9.0
asI1094
(lp1095
F16.0
aF9.0
asI1095
(lp1096
F8.0
aF4.0
asI1096
(lp1097
F16.0
aF10.0
asI1097
(lp1098
F16.0
aF8.0
asI1098
(lp1099
F16.0
aF7.0
asI1099
(lp1100
F16.0
aF10.0
asI1100
(lp1101
F12.0
aF8.0
asI1101
(lp1102
F16.0
aF8.0
asI1102
(lp1103
F16.0
aF8.0
asI1103
(lp1104
F16.0
aF8.0
asI1104
(lp1105
F16.0
aF7.0
asI1105
(lp1106
F16.0
aF7.0
asI1106
(lp1107
F16.0
aF10.0
asI1107
(lp1108
F16.0
aF8.0
asI1108
(lp1109
F16.0
aF9.0
asI1109
(lp1110
F16.0
aF7.0
asI1110
(lp1111
F20.0
aF7.0
asI1111
(lp1112
F16.0
aF10.0
asI1112
(lp1113
F16.0
aF7.0
asI1113
(lp1114
F16.0
aF8.0
asI1114
(lp1115
F16.0
aF8.0
asI1115
(lp1116
F12.0
aF7.0
asI1116
(lp1117
F12.0
aF8.0
asI1117
(lp1118
F20.0
aF8.0
asI1118
(lp1119
F12.0
aF9.0
asI1119
(lp1120
F16.0
aF8.0
asI1120
(lp1121
F16.0
aF9.0
asI1121
(lp1122
F12.0
aF6.0
asI1122
(lp1123
F20.0
aF9.0
asI1123
(lp1124
F12.0
aF7.0
asI1124
(lp1125
F20.0
aF8.0
asI1125
(lp1126
F20.0
aF9.0
asI1126
(lp1127
F20.0
aF8.0
asI1127
(lp1128
F16.0
aF9.0
asI1128
(lp1129
F20.0
aF8.0
asI1129
(lp1130
F16.0
aF8.0
asI1130
(lp1131
F16.0
aF8.0
asI1131
(lp1132
F12.0
aF10.0
asI1132
(lp1133
F16.0
aF8.0
asI1133
(lp1134
F20.0
aF8.0
asI1134
(lp1135
F16.0
aF8.0
asI1135
(lp1136
F16.0
aF9.0
asI1136
(lp1137
F16.0
aF9.0
asI1137
(lp1138
F16.0
aF8.0
asI1138
(lp1139
F20.0
aF10.0
asI1139
(lp1140
F20.0
aF7.0
asI1140
(lp1141
F12.0
aF7.0
asI1141
(lp1142
F12.0
aF6.0
asI1142
(lp1143
F16.0
aF9.0
asI1143
(lp1144
F20.0
aF9.0
asI1144
(lp1145
F16.0
aF9.0
asI1145
(lp1146
F20.0
aF7.0
asI1146
(lp1147
F20.0
aF6.0
asI1147
(lp1148
F12.0
aF7.0
asI1148
(lp1149
F16.0
aF8.0
asI1149
(lp1150
F16.0
aF7.0
asI1150
(lp1151
F20.0
aF10.0
asI1151
(lp1152
F12.0
aF8.0
asI1152
(lp1153
F16.0
aF8.0
asI1153
(lp1154
F20.0
aF9.0
asI1154
(lp1155
F16.0
aF9.0
asI1155
(lp1156
F16.0
aF9.0
asI1156
(lp1157
F16.0
aF9.0
asI1157
(lp1158
F16.0
aF7.0
asI1158
(lp1159
F16.0
aF8.0
asI1159
(lp1160
F16.0
aF8.0
asI1160
(lp1161
F16.0
aF8.0
asI1161
(lp1162
F16.0
aF8.0
asI1162
(lp1163
F12.0
aF9.0
asI1163
(lp1164
F16.0
aF7.0
asI1164
(lp1165
F12.0
aF6.0
asI1165
(lp1166
F16.0
aF9.0
asI1166
(lp1167
F12.0
aF7.0
asI1167
(lp1168
F12.0
aF9.0
asI1168
(lp1169
F12.0
aF7.0
asI1169
(lp1170
F16.0
aF8.0
asI1170
(lp1171
F16.0
aF8.0
asI1171
(lp1172
F16.0
aF9.0
asI1172
(lp1173
F16.0
aF7.0
asI1173
(lp1174
F16.0
aF9.0
asI1174
(lp1175
F16.0
aF8.0
asI1175
(lp1176
F20.0
aF6.0
asI1176
(lp1177
F20.0
aF10.0
asI1177
(lp1178
F12.0
aF8.0
asI1178
(lp1179
F16.0
aF8.0
asI1179
(lp1180
F16.0
aF8.0
asI1180
(lp1181
F16.0
aF6.0
asI1181
(lp1182
F16.0
aF9.0
asI1182
(lp1183
F16.0
aF9.0
asI1183
(lp1184
F20.0
aF8.0
asI1184
(lp1185
F16.0
aF8.0
asI1185
(lp1186
F16.0
aF8.0
asI1186
(lp1187
F16.0
aF9.0
asI1187
(lp1188
F16.0
aF7.0
asI1188
(lp1189
F20.0
aF9.0
asI1189
(lp1190
F20.0
aF8.0
asI1190
(lp1191
F16.0
aF8.0
asI1191
(lp1192
F20.0
aF9.0
asI1192
(lp1193
F16.0
aF8.0
asI1193
(lp1194
F16.0
aF8.0
asI1194
(lp1195
F16.0
aF8.0
asI1195
(lp1196
F16.0
aF7.0
asI1196
(lp1197
F20.0
aF9.0
asI1197
(lp1198
F16.0
aF9.0
asI1198
(lp1199
F16.0
aF8.0
asI1199
(lp1200
F20.0
aF8.0
asI1200
(lp1201
F16.0
aF7.0
asI1201
(lp1202
F16.0
aF9.0
asI1202
(lp1203
F12.0
aF8.0
asI1203
(lp1204
F16.0
aF8.0
asI1204
(lp1205
F16.0
aF8.0
asI1205
(lp1206
F16.0
aF9.0
asI1206
(lp1207
F16.0
aF8.0
asI1207
(lp1208
F16.0
aF7.0
asI1208
(lp1209
F20.0
aF9.0
asI1209
(lp1210
F16.0
aF9.0
asI1210
(lp1211
F16.0
aF8.0
asI1211
(lp1212
F16.0
aF8.0
asI1212
(lp1213
F16.0
aF8.0
asI1213
(lp1214
F20.0
aF8.0
asI1214
(lp1215
F16.0
aF9.0
asI1215
(lp1216
F12.0
aF8.0
asI1216
(lp1217
F16.0
aF7.0
asI1217
(lp1218
F20.0
aF9.0
asI1218
(lp1219
F12.0
aF5.0
asI1219
(lp1220
F16.0
aF8.0
asI1220
(lp1221
F16.0
aF8.0
asI1221
(lp1222
F16.0
aF8.0
asI1222
(lp1223
F12.0
aF7.0
asI1223
(lp1224
F16.0
aF9.0
asI1224
(lp1225
F16.0
aF7.0
asI1225
(lp1226
F16.0
aF7.0
asI1226
(lp1227
F12.0
aF7.0
asI1227
(lp1228
F16.0
aF8.0
asI1228
(lp1229
F16.0
aF9.0
asI1229
(lp1230
F16.0
aF7.0
asI1230
(lp1231
F16.0
aF7.0
asI1231
(lp1232
F16.0
aF9.0
asI1232
(lp1233
F16.0
aF7.0
asI1233
(lp1234
F16.0
aF8.0
asI1234
(lp1235
F16.0
aF8.0
asI1235
(lp1236
F16.0
aF10.0
asI1236
(lp1237
F20.0
aF9.0
asI1237
(lp1238
F16.0
aF8.0
asI1238
(lp1239
F16.0
aF7.0
asI1239
(lp1240
F20.0
aF8.0
asI1240
(lp1241
F16.0
aF8.0
asI1241
(lp1242
F16.0
aF7.0
asI1242
(lp1243
F16.0
aF9.0
asI1243
(lp1244
F12.0
aF7.0
asI1244
(lp1245
F16.0
aF9.0
asI1245
(lp1246
F16.0
aF7.0
asI1246
(lp1247
F16.0
aF7.0
asI1247
(lp1248
F16.0
aF8.0
asI1248
(lp1249
F20.0
aF9.0
asI1249
(lp1250
F20.0
aF7.0
asI1250
(lp1251
F20.0
aF8.0
asI1251
(lp1252
F12.0
aF7.0
asI1252
(lp1253
F16.0
aF8.0
asI1253
(lp1254
F16.0
aF8.0
asI1254
(lp1255
F16.0
aF9.0
asI1255
(lp1256
F16.0
aF8.0
asI1256
(lp1257
F16.0
aF9.0
asI1257
(lp1258
F16.0
aF8.0
asI1258
(lp1259
F16.0
aF8.0
asI1259
(lp1260
F16.0
aF9.0
asI1260
(lp1261
F16.0
aF8.0
asI1261
(lp1262
F16.0
aF9.0
asI1262
(lp1263
F20.0
aF10.0
asI1263
(lp1264
F16.0
aF7.0
asI1264
(lp1265
F16.0
aF8.0
asI1265
(lp1266
F16.0
aF10.0
asI1266
(lp1267
F12.0
aF7.0
asI1267
(lp1268
F16.0
aF8.0
asI1268
(lp1269
F16.0
aF8.0
as.